 flightControlSystem_sfun

 Timestamp is 69aeb932 (Mon Mar  9 17:42:34 2026)

 Preferred load address is 0000000180000000

 Start         Length     Name                   Class
 0001:00000000 00012fa0H .text$mn                CODE
 0001:00012fa0 00000036H .text$mn$00             CODE
 0001:00012fd6 00000092H .text$x                 CODE
 0002:00000000 00000458H .idata$5                DATA
 0002:00000458 00000038H .00cfg                  DATA
 0002:00000490 00000008H .CRT$XCA                DATA
 0002:00000498 00000008H .CRT$XCZ                DATA
 0002:000004a0 00000008H .CRT$XIA                DATA
 0002:000004a8 00000008H .CRT$XIZ                DATA
 0002:000004b0 00000008H .CRT$XPA                DATA
 0002:000004b8 00000008H .CRT$XPZ                DATA
 0002:000004c0 00000008H .CRT$XTA                DATA
 0002:000004c8 00000008H .CRT$XTZ                DATA
 0002:000004d0 00000000H .gehcont$y              DATA
 0002:000004d0 00000000H .gfids$y                DATA
 0002:000004d0 00000330H .rdata                  DATA
 0002:00000800 00000080H .rdata$CastGuardVftablesA DATA
 0002:00000880 00000080H .rdata$CastGuardVftablesC DATA
 0002:00000900 00000180H .rdata$voltmd           DATA
 0002:00000a80 00000278H .rdata$zzzdbg           DATA
 0002:00000cf8 00000008H .rtc$IAA                DATA
 0002:00000d00 00000008H .rtc$IZZ                DATA
 0002:00000d08 00000008H .rtc$TAA                DATA
 0002:00000d10 00000008H .rtc$TZZ                DATA
 0002:00000d18 00000a18H .xdata                  DATA
 0002:00001730 00000084H .edata                  DATA
 0002:000017b4 00000118H .idata$2                DATA
 0002:000018cc 00000014H .idata$3                DATA
 0002:000018e0 00000458H .idata$4                DATA
 0002:00001d38 00000bdcH .idata$6                DATA
 0003:00000000 000043d0H .data                   DATA
 0003:000043d0 00000bf0H .bss                    DATA
 0004:00000000 00000c48H .pdata                  DATA

  Address         Publics by Value              Rva+Base               Lib:Object

 0000:00000000       __AbsoluteZero             0000000000000000     <absolute>
 0000:00000000       ___safe_se_handler_count   0000000000000000     <absolute>
 0000:00000000       ___safe_se_handler_table   0000000000000000     <absolute>
 0000:00000000       __arm64x_extra_rfe_table   0000000000000000     <absolute>
 0000:00000000       __arm64x_extra_rfe_table_size 0000000000000000     <absolute>
 0000:00000000       __arm64x_native_entrypoint 0000000000000000     <absolute>
 0000:00000000       __arm64x_redirection_metadata 0000000000000000     <absolute>
 0000:00000000       __arm64x_redirection_metadata_count 0000000000000000     <absolute>
 0000:00000000       __dynamic_value_reloc_table 0000000000000000     <absolute>
 0000:00000000       __enclave_config           0000000000000000     <absolute>
 0000:00000000       __guard_check_icall_a64n_fptr 0000000000000000     <absolute>
 0000:00000000       __guard_eh_cont_count      0000000000000000     <absolute>
 0000:00000000       __guard_eh_cont_table      0000000000000000     <absolute>
 0000:00000000       __guard_fids_count         0000000000000000     <absolute>
 0000:00000000       __guard_fids_table         0000000000000000     <absolute>
 0000:00000000       __guard_iat_count          0000000000000000     <absolute>
 0000:00000000       __guard_iat_table          0000000000000000     <absolute>
 0000:00000000       __guard_longjmp_count      0000000000000000     <absolute>
 0000:00000000       __guard_longjmp_table      0000000000000000     <absolute>
 0000:00000000       __hybrid_auxiliary_delayload_iat 0000000000000000     <absolute>
 0000:00000000       __hybrid_auxiliary_delayload_iat_copy 0000000000000000     <absolute>
 0000:00000000       __hybrid_auxiliary_iat     0000000000000000     <absolute>
 0000:00000000       __hybrid_auxiliary_iat_copy 0000000000000000     <absolute>
 0000:00000000       __hybrid_code_map          0000000000000000     <absolute>
 0000:00000000       __hybrid_code_map_count    0000000000000000     <absolute>
 0000:00000000       __hybrid_image_info_bitfield 0000000000000000     <absolute>
 0000:00000000       __x64_code_ranges_to_entry_points 0000000000000000     <absolute>
 0000:00000000       __x64_code_ranges_to_entry_points_count 0000000000000000     <absolute>
 0000:00000100       __guard_flags              0000000000000100     <absolute>
 0000:00000000       __ImageBase                0000000180000000     <linker-defined>
 0001:00000000       flightControlSystem_initializer 0000000180001000 f   flightControlSystem_sfun.obj
 0001:00000010       flightControlSystem_terminator 0000000180001010 f   flightControlSystem_sfun.obj
 0001:00000020       load_flightControlSystem_optimization_info 0000000180001020 f   flightControlSystem_sfun.obj
 0001:000000d0       unload_flightControlSystem_optimization_info 00000001800010d0 f   flightControlSystem_sfun.obj
 0001:00000100       sf_flightControlSystem_method_dispatcher 0000000180001100 f   flightControlSystem_sfun.obj
 0001:00000150       sf_flightControlSystem_process_check_sum_call 0000000180001150 f   flightControlSystem_sfun.obj
 0001:00000650       sf_flightControlSystem_get_eml_resolved_functions_info 0000000180001650 f   flightControlSystem_sfun.obj
 0001:00000840       sf_flightControlSystem_third_party_uses_info 0000000180001840 f   flightControlSystem_sfun.obj
 0001:00000a10       sf_flightControlSystem_jit_fallback_info 0000000180001a10 f   flightControlSystem_sfun.obj
 0001:00000be0       sf_flightControlSystem_get_post_codegen_info 0000000180001be0 f   flightControlSystem_sfun.obj
 0001:00000dc0       sf_flightControlSystem_updateBuildInfo_args_info 0000000180001dc0 f   flightControlSystem_sfun.obj
 0001:00000f90       sf_c1_flightControlSystem_get_eml_resolved_functions_info 0000000180001f90 f   c1_flightControlSystem.obj
 0001:00001010       sf_c1_flightControlSystem_get_check_sum 0000000180002010 f   c1_flightControlSystem.obj
 0001:000010e0       c1_flightControlSystem_method_dispatcher 00000001800020e0 f   c1_flightControlSystem.obj
 0001:00005df0       sf_c1_flightControlSystem_third_party_uses_info 0000000180006df0 f   c1_flightControlSystem.obj
 0001:00005e40       sf_c1_flightControlSystem_jit_fallback_info 0000000180006e40 f   c1_flightControlSystem.obj
 0001:00005fd0       sf_c1_flightControlSystem_updateBuildInfo_args_info 0000000180006fd0 f   c1_flightControlSystem.obj
 0001:00006300       sf_c1_flightControlSystem_get_post_codegen_info 0000000180007300 f   c1_flightControlSystem.obj
 0001:000067e0       mexFunction                00000001800077e0 f   flightControlSystem_sfun_registry.obj
 0001:00009120       _ssSetInputPortDirectFeedThroughFcn 000000018000a120 f   flightControlSystem_sfun_registry.obj
 0001:00009290       _ssSetRWorkValueFcn        000000018000a290 f   flightControlSystem_sfun_registry.obj
 0001:00009310       _ssGetRWorkValueFcn        000000018000a310 f   flightControlSystem_sfun_registry.obj
 0001:00009380       _ssSetIWorkValueFcn        000000018000a380 f   flightControlSystem_sfun_registry.obj
 0001:00009400       _ssGetIWorkValueFcn        000000018000a400 f   flightControlSystem_sfun_registry.obj
 0001:00009470       _ssSetPWorkValueFcn        000000018000a470 f   flightControlSystem_sfun_registry.obj
 0001:000094f0       _ssGetPWorkValueFcn        000000018000a4f0 f   flightControlSystem_sfun_registry.obj
 0001:00009560       _ssGetInputPortSignalFcn   000000018000a560 f   flightControlSystem_sfun_registry.obj
 0001:000098f0       _ssGetInputPortBufferDstPortFcn 000000018000a8f0 f   flightControlSystem_sfun_registry.obj
 0001:00009970       _ssGetInputPortSignalPtrsFcn 000000018000a970 f   flightControlSystem_sfun_registry.obj
 0001:00009d00       ssGetParameterTuningCompliance 000000018000ad00 f   flightControlSystem_sfun_registry.obj
 0001:00009d70       _ssReadInputStringFcn      000000018000ad70 f   flightControlSystem_sfun_registry.obj
 0001:00009de0       ssGetDTypeIdFromMxArray    000000018000ade0 f   flightControlSystem_sfun_registry.obj
 0001:00009f00       ssWriteRTWMx2dMatParam     000000018000af00 f   flightControlSystem_sfun_registry.obj
 0001:00009f90       ssWriteRTWMxVectParam      000000018000af90 f   flightControlSystem_sfun_registry.obj
 0001:0000a010       ssWriteRTWParameters       000000018000b010 f   flightControlSystem_sfun_registry.obj
 0001:0000a5d0       ssWriteRTWParamSettings    000000018000b5d0 f   flightControlSystem_sfun_registry.obj
 0001:0000acc0       ssWriteRTWStr              000000018000bcc0 f   flightControlSystem_sfun_registry.obj
 0001:0000ad20       ssWriteRTWWorkVect         000000018000bd20 f   flightControlSystem_sfun_registry.obj
 0001:0000b280       ssWarning                  000000018000c280 f   flightControlSystem_sfun_registry.obj
 0001:0000b370       ssGetRootSS                000000018000c370 f   flightControlSystem_sfun_registry.obj
 0001:0000b430       ssGetParentSS              000000018000c430 f   flightControlSystem_sfun_registry.obj
 0001:0000b4f0       ssWriteRTWNameValuePair    000000018000c4f0 f   flightControlSystem_sfun_registry.obj
 0001:0000b9f0       _ssSetInputPortMatrixDimensions 000000018000c9f0 f   flightControlSystem_sfun_registry.obj
 0001:0000bb40       _ssSetOutputPortMatrixDimensions 000000018000cb40 f   flightControlSystem_sfun_registry.obj
 0001:0000bc90       _ssSetInputPortVectorDimension 000000018000cc90 f   flightControlSystem_sfun_registry.obj
 0001:0000bd40       _ssSetOutputPortVectorDimension 000000018000cd40 f   flightControlSystem_sfun_registry.obj
 0001:0000bdf0       ssIsRunTimeParamTunable    000000018000cdf0 f   flightControlSystem_sfun_registry.obj
 0001:0000be60       ssGetSFuncBlockHandle      000000018000ce60 f   flightControlSystem_sfun_registry.obj
 0001:0000bed0       _ssGetCallSystemNumFcnCallDestinations 000000018000ced0 f   flightControlSystem_sfun_registry.obj
 0001:0000bf40       _ssGetCurrentInputPortWidth 000000018000cf40 f   flightControlSystem_sfun_registry.obj
 0001:0000c080       _ssGetCurrentOutputPortWidth 000000018000d080 f   flightControlSystem_sfun_registry.obj
 0001:0000c1c0       ssGetIsZeroCrossControlDisabled 000000018000d1c0 f   flightControlSystem_sfun_registry.obj
 0001:0000c230       ssSetIsInputPortUsedForContZcSignal 000000018000d230 f   flightControlSystem_sfun_registry.obj
 0001:0000c2a0       ssSetZcSignalIsZcElementDisc 000000018000d2a0 f   flightControlSystem_sfun_registry.obj
 0001:0000c350       ssSetZcSignalName          000000018000d350 f   flightControlSystem_sfun_registry.obj
 0001:0000c3c0       ssSetZcSignalWidth         000000018000d3c0 f   flightControlSystem_sfun_registry.obj
 0001:0000c430       ssSetZcSignalZcEventType   000000018000d430 f   flightControlSystem_sfun_registry.obj
 0001:0000c4a0       ssSetZcSignalType          000000018000d4a0 f   flightControlSystem_sfun_registry.obj
 0001:0000c510       ssSetZcSignalZcTol         000000018000d510 f   flightControlSystem_sfun_registry.obj
 0001:0000c580       ssSetZcSignalNeedsEventNotification 000000018000d580 f   flightControlSystem_sfun_registry.obj
 0001:0000c5f0       ssCreateAndAddZcSignalInfo 000000018000d5f0 f   flightControlSystem_sfun_registry.obj
 0001:0000c660       ssCloneAndAddZcSignalInfo  000000018000d660 f   flightControlSystem_sfun_registry.obj
 0001:0000c6d0       ssGetNumZcSignals          000000018000d6d0 f   flightControlSystem_sfun_registry.obj
 0001:0000c740       ssGetZcSignalVector        000000018000d740 f   flightControlSystem_sfun_registry.obj
 0001:0000c7b0       ssGetZcSignalName          000000018000d7b0 f   flightControlSystem_sfun_registry.obj
 0001:0000c820       ssGetZcSignalWidth         000000018000d820 f   flightControlSystem_sfun_registry.obj
 0001:0000c890       ssGetZcSignalZcEventType   000000018000d890 f   flightControlSystem_sfun_registry.obj
 0001:0000c900       ssGetZcSignalZcEvents      000000018000d900 f   flightControlSystem_sfun_registry.obj
 0001:0000c970       ssGetZcSignalType          000000018000d970 f   flightControlSystem_sfun_registry.obj
 0001:0000c9e0       ssGetZcSignalZcTol         000000018000d9e0 f   flightControlSystem_sfun_registry.obj
 0001:0000ca60       ssGetZcSignalNeedsEventNotification 000000018000da60 f   flightControlSystem_sfun_registry.obj
 0001:0000cad0       ssGetZcSignalIsZcElementDisc 000000018000dad0 f   flightControlSystem_sfun_registry.obj
 0001:0000cb70       ssGetIsInputPortElementContinuous 000000018000db70 f   flightControlSystem_sfun_registry.obj
 0001:0000cc10       _ssGetAbsTol               000000018000dc10 f   flightControlSystem_sfun_registry.obj
 0001:0000cc80       _ssSetStateAbsTol          000000018000dc80 f   flightControlSystem_sfun_registry.obj
 0001:0000cd60       _ssSetInputPortReusableFcn 000000018000dd60 f   flightControlSystem_sfun_registry.obj
 0001:0000ce60       _ssSetOutputPortReusableFcn 000000018000de60 f   flightControlSystem_sfun_registry.obj
 0001:0000cf60       _ssSetSymbolicDimsSupport  000000018000df60 f   flightControlSystem_sfun_registry.obj
 0001:0000cfd0       _ssRegisterSymbolicDimsExpr 000000018000dfd0 f   flightControlSystem_sfun_registry.obj
 0001:0000d050       _ssRegisterSymbolicDimsMATLABExpr 000000018000e050 f   flightControlSystem_sfun_registry.obj
 0001:0000d0e0       _ssRegisterSymbolicDims    000000018000e0e0 f   flightControlSystem_sfun_registry.obj
 0001:0000d180       _ssRegisterSymbolicDimsString 000000018000e180 f   flightControlSystem_sfun_registry.obj
 0001:0000d200       _ssRegisterSymbolicDimsIntValue 000000018000e200 f   flightControlSystem_sfun_registry.obj
 0001:0000d270       _ssRegisterSymbolicEqualRelation 000000018000e270 f   flightControlSystem_sfun_registry.obj
 0001:0000d2e0       _ssRegisterSymbolicEqualValue 000000018000e2e0 f   flightControlSystem_sfun_registry.obj
 0001:0000d350       _ssAmendLeadingSymbolicDims 000000018000e350 f   flightControlSystem_sfun_registry.obj
 0001:0000d3d0       _ssAmendTrailingSymbolicDims 000000018000e3d0 f   flightControlSystem_sfun_registry.obj
 0001:0000d450       _ssRegisterSymbolicDimsPlus 000000018000e450 f   flightControlSystem_sfun_registry.obj
 0001:0000d4d0       _ssRegisterSymbolicDimsMinus 000000018000e4d0 f   flightControlSystem_sfun_registry.obj
 0001:0000d550       _ssRegisterSymbolicDimsMultiply 000000018000e550 f   flightControlSystem_sfun_registry.obj
 0001:0000d5d0       _ssRegisterSymbolicDimsDivide 000000018000e5d0 f   flightControlSystem_sfun_registry.obj
 0001:0000d650       _ssGetNumSymbolicDims      000000018000e650 f   flightControlSystem_sfun_registry.obj
 0001:0000d6c0       _ssGetSymbolicDim          000000018000e6c0 f   flightControlSystem_sfun_registry.obj
 0001:0000d740       _ssSetInputPortSymbolicDimsId 000000018000e740 f   flightControlSystem_sfun_registry.obj
 0001:0000d7b0       _ssGetCompInputPortSymbolicDimsId 000000018000e7b0 f   flightControlSystem_sfun_registry.obj
 0001:0000d820       _ssSetCompInputPortSymbolicDimsId 000000018000e820 f   flightControlSystem_sfun_registry.obj
 0001:0000d890       _ssSetOutputPortSymbolicDimsId 000000018000e890 f   flightControlSystem_sfun_registry.obj
 0001:0000d900       _ssGetCompOutputPortSymbolicDimsId 000000018000e900 f   flightControlSystem_sfun_registry.obj
 0001:0000d970       _ssSetCompOutputPortSymbolicDimsId 000000018000e970 f   flightControlSystem_sfun_registry.obj
 0001:0000d9e0       _ssGetDWorkSymbolicDimsId  000000018000e9e0 f   flightControlSystem_sfun_registry.obj
 0001:0000da50       _ssSetDWorkSymbolicDimsId  000000018000ea50 f   flightControlSystem_sfun_registry.obj
 0001:0000dac0       _ssGetCompDWorkSymbolicDimsId 000000018000eac0 f   flightControlSystem_sfun_registry.obj
 0001:0000db30       _ssSetCompDWorkSymbolicDimsId 000000018000eb30 f   flightControlSystem_sfun_registry.obj
 0001:0000dba0       _ssCreateSLCGStringBuffer  000000018000eba0 f   flightControlSystem_sfun_registry.obj
 0001:0000dc10       _ssAddToSLCGStringBuffer   000000018000ec10 f   flightControlSystem_sfun_registry.obj
 0001:0000dc80       _ssGetPointerContainedData 000000018000ec80 f   flightControlSystem_sfun_registry.obj
 0001:0000dd10       _ssGetPointerContainedDataWidth 000000018000ed10 f   flightControlSystem_sfun_registry.obj
 0001:0000dda0       _ssRegisterDynamicArrayDataTypeFcn 000000018000eda0 f   flightControlSystem_sfun_registry.obj
 0001:0000de40       _ssGetDynamicArrayContainedDataCurrentWidthFcn 000000018000ee40 f   flightControlSystem_sfun_registry.obj
 0001:0000df10       _ssGetDynamicArrayContainedDataFcn 000000018000ef10 f   flightControlSystem_sfun_registry.obj
 0001:0000dfe0       _ssGetInputPortDynamicArrayDataFcn 000000018000efe0 f   flightControlSystem_sfun_registry.obj
 0001:0000e0a0       _ssGetOutputPortDynamicArrayDataFcn 000000018000f0a0 f   flightControlSystem_sfun_registry.obj
 0001:0000e160       _ssGetInputPortDynamicArrayContainedDataFcn 000000018000f160 f   flightControlSystem_sfun_registry.obj
 0001:0000e220       _ssGetOutputPortDynamicArrayContainedDataFcn 000000018000f220 f   flightControlSystem_sfun_registry.obj
 0001:0000e2e0       _ssGetDynamicArrayDWorkContainedDataFcn 000000018000f2e0 f   flightControlSystem_sfun_registry.obj
 0001:0000e3a0       sf_process_check_sum_call  000000018000f3a0 f   flightControlSystem_sfun_registry.obj
 0001:0000e3f0       sf_process_get_third_party_uses_info_call 000000018000f3f0 f   flightControlSystem_sfun_registry.obj
 0001:0000e620       sf_process_get_jit_fallback_info_call 000000018000f620 f   flightControlSystem_sfun_registry.obj
 0001:0000e850       sf_process_get_post_codegen_info_call 000000018000f850 f   flightControlSystem_sfun_registry.obj
 0001:0000ea80       sf_process_get_updateBuildInfo_args_info_call 000000018000fa80 f   flightControlSystem_sfun_registry.obj
 0001:0000ecb0       sf_process_get_eml_resolved_functions_info_call 000000018000fcb0 f   flightControlSystem_sfun_registry.obj
 0001:0000eee0       sf_mex_unlock_call         000000018000fee0 f   flightControlSystem_sfun_registry.obj
 0001:0000f100       sf_machine_global_initializer_called 0000000180010100 f   flightControlSystem_sfun_registry.obj
 0001:0000f130       sf_machine_global_method_dispatcher 0000000180010130 f   flightControlSystem_sfun_registry.obj
 0001:0000f190       sf_machine_global_terminator 0000000180010190 f   flightControlSystem_sfun_registry.obj
 0001:0000f1d0       callCustomFcn              00000001800101d0 f   flightControlSystem_sfun_registry.obj
 0001:0000f1e0       sf_machine_global_initializer 00000001800101e0 f   flightControlSystem_sfun_registry.obj
 0001:0000f210       mdlGetSimState             0000000180010210 f   flightControlSystem_sfun_registry.obj
 0001:0000f250       mdlSetSimState             0000000180010250 f   flightControlSystem_sfun_registry.obj
 0001:0000fc00       ProcessMexSfunctionEveryCall 0000000180010c00 f   flightControlSystem_sfun_registry.obj
 0001:00010d90       __local_stdio_printf_options 0000000180011d90 f i flightControlSystem_sfun_registry.obj
 0001:00010da0       _vsnprintf_l               0000000180011da0 f i flightControlSystem_sfun_registry.obj
 0001:00010e20       _vsprintf_l                0000000180011e20 f i flightControlSystem_sfun_registry.obj
 0001:00010e70       sprintf                    0000000180011e70 f i flightControlSystem_sfun_registry.obj
 0001:00010ec0       mexfilerequiredapiversion  0000000180011ec0 f   c_mexapi_version.obj
 0001:00010ef0       getBitfieldFromFloat       0000000180011ef0 f   half_type.obj
 0001:00010f20       getFloatFromBitfield       0000000180011f20 f   half_type.obj
 0001:00010f50       getBitfieldFromHalf        0000000180011f50 f   half_type.obj
 0001:00010f70       getHalfFromBitfield        0000000180011f70 f   half_type.obj
 0001:00010fa0       halfToFloat                0000000180011fa0 f   half_type.obj
 0001:00011120       halfToDouble               0000000180012120 f   half_type.obj
 0001:00011150       floatToHalf                0000000180012150 f   half_type.obj
 0001:000113b0       doubleToHalf               00000001800123b0 f   half_type.obj
 0001:0001169b       erode_binary_ones33_tbb    000000018001269b f   libmwmorphop_binary_tbb:libmwmorphop_binary_tbb.dll
 0001:000116a1       sf_load_rtw_optimization_info 00000001800126a1 f   sf_runtime:sf_runtime.dll
 0001:000116a7       sf_mex_decode              00000001800126a7 f   sf_runtime:sf_runtime.dll
 0001:000116ad       sf_init_ChartRunTimeInfo   00000001800126ad f   sf_runtime:sf_runtime.dll
 0001:000116b3       sf_free_ChartRunTimeInfo   00000001800126b3 f   sf_runtime:sf_runtime.dll
 0001:000116b9       sf_reset_warnings_ChartRunTimeInfo 00000001800126b9 f   sf_runtime:sf_runtime.dll
 0001:000116bf       sfrtGetEmlrtCtx            00000001800126bf f   sf_runtime:sf_runtime.dll
 0001:000116c5       sfrtGetCovrtInstance       00000001800126c5 f   sf_runtime:sf_runtime.dll
 0001:000116cb       sf_get_chart_instance_ptr  00000001800126cb f   sf_runtime:sf_runtime.dll
 0001:000116d1       sfSetAnimationVectors      00000001800126d1 f   sf_runtime:sf_runtime.dll
 0001:000116d7       sim_mode_is_rtw_gen        00000001800126d7 f   sf_runtime:sf_runtime.dll
 0001:000116dd       sim_mode_is_external       00000001800126dd f   sf_runtime:sf_runtime.dll
 0001:000116e3       sf_clear_rtw_identifier    00000001800126e3 f   sf_runtime:sf_runtime.dll
 0001:000116e9       sf_get_time                00000001800126e9 f   sf_runtime:sf_runtime.dll
 0001:000116ef       sf_set_work_widths         00000001800126ef f   sf_runtime:sf_runtime.dll
 0001:000116f5       mdlProcessParamsCommon     00000001800126f5 f   sf_runtime:sf_runtime.dll
 0001:000116fb       sf_mex_call                00000001800126fb f   sf_runtime:sf_runtime.dll
 0001:00011701       sf_mex_error_message       0000000180012701 f   sf_runtime:sf_runtime.dll
 0001:00011707       sf_mex_create              0000000180012707 f   sf_runtime:sf_runtime.dll
 0001:0001170d       sf_mex_createcellmatrix    000000018001270d f   sf_runtime:sf_runtime.dll
 0001:00011713       sf_mex_setcell             0000000180012713 f   sf_runtime:sf_runtime.dll
 0001:00011719       sf_mex_getcell             0000000180012719 f   sf_runtime:sf_runtime.dll
 0001:0001171f       sf_mex_assign              000000018001271f f   sf_runtime:sf_runtime.dll
 0001:00011725       sf_mex_dup                 0000000180012725 f   sf_runtime:sf_runtime.dll
 0001:0001172b       sf_mex_destroy             000000018001272b f   sf_runtime:sf_runtime.dll
 0001:00011731       sf_mex_import              0000000180012731 f   sf_runtime:sf_runtime.dll
 0001:00011737       ssGetInputPortSignal_wrapper 0000000180012737 f   sf_runtime:sf_runtime.dll
 0001:0001173d       ssGetOutputPortSignal_wrapper 000000018001273d f   sf_runtime:sf_runtime.dll
 0001:00011743       sf_get_ChartInfoStruct_CodeGen 0000000180012743 f   sf_runtime:sf_runtime.dll
 0001:00011749       sf_get_hasSeparateUpdateOutputs 0000000180012749 f   sf_runtime:sf_runtime.dll
 0001:0001174f       callMdlMethodAndReportError 000000018001274f f   sf_runtime:sf_runtime.dll
 0001:00011755       call_sf_machine_global_method_dispatcher 0000000180012755 f   sf_runtime:sf_runtime.dll
 0001:0001175b       getRuntimeInstanceInfoAsVoid 000000018001275b f   sf_runtime:sf_runtime.dll
 0001:00011761       sf_mex_error_direct_call   0000000180012761 f   sf_runtime:sf_runtime.dll
 0001:00011767       sf_clear_error_manager_info 0000000180012767 f   sf_runtime:sf_runtime.dll
 0001:0001176d       mxIsChar_800               000000018001276d f   libmx:libmx.dll
 0001:00011773       mxGetScalar_800            0000000180012773 f   libmx:libmx.dll
 0001:00011779       mxGetPr_800                0000000180012779 f   libmx:libmx.dll
 0001:0001177f       mxDestroyArray_800         000000018001277f f   libmx:libmx.dll
 0001:00011785       mxCreateDoubleMatrix_800   0000000180012785 f   libmx:libmx.dll
 0001:0001178b       mxGetString_800            000000018001278b f   libmx:libmx.dll
 0001:00011791       mxDuplicateArray_800       0000000180012791 f   libmx:libmx.dll
 0001:00011797       mxSetCell_800              0000000180012797 f   libmx:libmx.dll
 0001:0001179d       mxSetField_800             000000018001279d f   libmx:libmx.dll
 0001:000117a3       mxCreateString_800         00000001800127a3 f   libmx:libmx.dll
 0001:000117a9       mxCreateCellMatrix_800     00000001800127a9 f   libmx:libmx.dll
 0001:000117af       mxCreateStructMatrix_800   00000001800127af f   libmx:libmx.dll
 0001:000117b5       mxCalloc_800               00000001800127b5 f   libmx:libmx.dll
 0001:000117bb       mxGetM_800                 00000001800127bb f   libmx:libmx.dll
 0001:000117c1       mxGetClassID_800           00000001800127c1 f   libmx:libmx.dll
 0001:000117c7       mxIsNumeric_800            00000001800127c7 f   libmx:libmx.dll
 0001:000117cd       mxIsComplex_800            00000001800127cd f   libmx:libmx.dll
 0001:000117d3       mxGetN_800                 00000001800127d3 f   libmx:libmx.dll
 0001:000117d9       mxCreateDoubleScalar_800   00000001800127d9 f   libmx:libmx.dll
 0001:000117df       mexMakeArrayPersistent_800 00000001800127df f   libmex:libmex.dll
 0001:000117e5       mexErrMsgTxt_800           00000001800127e5 f   libmex:libmex.dll
 0001:000117eb       mexWarnMsgTxt_800          00000001800127eb f   libmex:libmex.dll
 0001:000117f1       mexCallMATLAB_800          00000001800127f1 f   libmex:libmex.dll
 0001:000117f7       mexLock_800                00000001800127f7 f   libmex:libmex.dll
 0001:000117fd       mexUnlock_800              00000001800127fd f   libmex:libmex.dll
 0001:00011803       mexIsLocked_800            0000000180012803 f   libmex:libmex.dll
 0001:00011809       utMalloc                   0000000180012809 f   libut:libut.dll
 0001:0001180f       utFree                     000000018001280f f   libut:libut.dll
 0001:00011815       muDoubleScalarAbs          0000000180012815 f   libmwmathutil:libmwmathutil.dll
 0001:0001181b       muDoubleScalarSqrt         000000018001281b f   libmwmathutil:libmwmathutil.dll
 0001:00011821       emlrtLicenseCheckR2022a    0000000180012821 f   libemlrt:libemlrt.dll
 0001:00011827       covrtCreateStateflowInstanceData 0000000180012827 f   libcovrt:libcovrt.dll
 0001:0001182d       covrtDeleteStateflowInstanceData 000000018001282d f   libcovrt:libcovrt.dll
 0001:00011833       covrtTransInitFcn          0000000180012833 f   libcovrt:libcovrt.dll
 0001:00011839       covrtStateInitFcn          0000000180012839 f   libcovrt:libcovrt.dll
 0001:0001183f       covrtChartInitFcn          000000018001283f f   libcovrt:libcovrt.dll
 0001:00011845       covrtRelationalopUpdateFcn 0000000180012845 f   libcovrt:libcovrt.dll
 0001:0001184b       covrtSigUpdateFcn          000000018001284b f   libcovrt:libcovrt.dll
 0001:00011851       covrtSigUpdateFcnAssumingCovEnabled 0000000180012851 f   libcovrt:libcovrt.dll
 0001:00011857       covrtIsSigCovEnabledFcn    0000000180012857 f   libcovrt:libcovrt.dll
 0001:0001185d       covrtEmlInitFcn            000000018001285d f   libcovrt:libcovrt.dll
 0001:00011863       covrtEmlFcnInitFcn         0000000180012863 f   libcovrt:libcovrt.dll
 0001:00011869       covrtEmlIfInitFcn          0000000180012869 f   libcovrt:libcovrt.dll
 0001:0001186f       covrtEmlMCDCInitFcn        000000018001286f f   libcovrt:libcovrt.dll
 0001:00011875       covrtEmlRelationalInitFcn  0000000180012875 f   libcovrt:libcovrt.dll
 0001:0001187b       covrtEmlFcnEval            000000018001287b f   libcovrt:libcovrt.dll
 0001:00011881       covrtEmlIfEval             0000000180012881 f   libcovrt:libcovrt.dll
 0001:00011887       covrtEmlCondEval           0000000180012887 f   libcovrt:libcovrt.dll
 0001:0001188d       covrtEmlMcdcEval           000000018001288d f   libcovrt:libcovrt.dll
 0001:00011894       __raise_securityfailure    0000000180012894 f   MSVCRT:gs_report.obj
 0001:000118c8       __report_gsfailure         00000001800128c8 f   MSVCRT:gs_report.obj
 0001:0001199c       __report_rangecheckfailure 000000018001299c f   MSVCRT:gs_report.obj
 0001:000119b0       __report_securityfailure   00000001800129b0 f   MSVCRT:gs_report.obj
 0001:00011a50       __report_securityfailureEx 0000000180012a50 f   MSVCRT:gs_report.obj
 0001:00011c44       __GSHandlerCheck           0000000180012c44 f   MSVCRT:gshandler.obj
 0001:00011c64       __GSHandlerCheckCommon     0000000180012c64 f   MSVCRT:gshandler.obj
 0001:00011ce0       __security_check_cookie    0000000180012ce0 f   MSVCRT:amdsecgs.obj
 0001:00011d10       __chkstk                   0000000180012d10 f   MSVCRT:chkstk.obj
 0001:00011d10       _alloca_probe              0000000180012d10 f   MSVCRT:chkstk.obj
 0001:00012090       _CRT_INIT                  0000000180013090 f   MSVCRT:dll_dllmain.obj
 0001:00012098       _DllMainCRTStartup         0000000180013098 f   MSVCRT:dll_dllmain.obj
 0001:00012148       __security_init_cookie     0000000180013148 f   MSVCRT:gs_support.obj
 0001:000121f8       DllMain                    00000001800131f8 f   MSVCRT:dll_dllmain_stub.obj
 0001:0001221c       ?__scrt_initialize_type_info@@YAXXZ 000000018001321c f   MSVCRT:tncleanup.obj
 0001:0001222c       ?__scrt_uninitialize_type_info@@YAXXZ 000000018001322c f   MSVCRT:tncleanup.obj
 0001:00012238       __local_stdio_scanf_options 0000000180013238 f i MSVCRT:default_local_stdio_options.obj
 0001:00012240       __scrt_initialize_default_local_stdio_options 0000000180013240 f   MSVCRT:default_local_stdio_options.obj
 0001:0001225c       ?configure_argv@__scrt_narrow_argv_policy@@SAHXZ 000000018001325c f i MSVCRT:utility.obj
 0001:000122bc       ?initialize_environment@__scrt_narrow_environment_policy@@SAHXZ 00000001800132bc f i MSVCRT:utility.obj
 0001:000122f4       NtCurrentTeb               00000001800132f4 f i MSVCRT:utility.obj
 0001:00012300       __scrt_acquire_startup_lock 0000000180013300 f   MSVCRT:utility.obj
 0001:0001233c       __scrt_dllmain_after_initialize_c 000000018001333c f   MSVCRT:utility.obj
 0001:00012370       __scrt_dllmain_before_initialize_c 0000000180013370 f   MSVCRT:utility.obj
 0001:00012388       __scrt_dllmain_crt_thread_attach 0000000180013388 f   MSVCRT:utility.obj
 0001:000123b0       __scrt_dllmain_crt_thread_detach 00000001800133b0 f   MSVCRT:utility.obj
 0001:000123c8       __scrt_dllmain_exception_filter 00000001800133c8 f   MSVCRT:utility.obj
 0001:00012428       __scrt_dllmain_uninitialize_c 0000000180013428 f   MSVCRT:utility.obj
 0001:00012458       __scrt_dllmain_uninitialize_critical 0000000180013458 f   MSVCRT:utility.obj
 0001:0001246c       __scrt_initialize_crt      000000018001346c f   MSVCRT:utility.obj
 0001:000124a8       __scrt_initialize_onexit_tables 00000001800134a8 f   MSVCRT:utility.obj
 0001:00012534       __scrt_is_nonwritable_in_current_image 0000000180013534 f   MSVCRT:utility.obj
 0001:000125cc       __scrt_release_startup_lock 00000001800135cc f   MSVCRT:utility.obj
 0001:000125f0       __scrt_uninitialize_crt    00000001800135f0 f   MSVCRT:utility.obj
 0001:0001261c       _onexit                    000000018001361c f   MSVCRT:utility.obj
 0001:00012658       at_quick_exit              0000000180013658 f   MSVCRT:utility.obj
 0001:00012678       atexit                     0000000180013678 f   MSVCRT:utility.obj
 0001:00012690       __scrt_get_dyn_tls_init_callback 0000000180013690 f   MSVCRT:dyn_tls_init.obj
 0001:00012698       __crt_debugger_hook        0000000180013698 f   MSVCRT:utility_desktop.obj
 0001:000126a4       __scrt_fastfail            00000001800136a4 f   MSVCRT:utility_desktop.obj
 0001:000127f0       __scrt_get_show_window_mode 00000001800137f0 f   MSVCRT:utility_desktop.obj
 0001:0001282c       __scrt_initialize_mta      000000018001382c f   MSVCRT:utility_desktop.obj
 0001:00012834       __scrt_initialize_winrt    0000000180013834 f   MSVCRT:utility_desktop.obj
 0001:00012838       __scrt_is_managed_app      0000000180013838 f   MSVCRT:utility_desktop.obj
 0001:0001288c       __scrt_set_unhandled_exception_filter 000000018001388c f   MSVCRT:utility_desktop.obj
 0001:0001289c       __scrt_exe_initialize_mta  000000018001389c f   MSVCRT:utility_desktop.obj
 0001:0001289c       __scrt_stub_for_initialize_mta 000000018001389c f   MSVCRT:utility_desktop.obj
 0001:000128a0       __scrt_unhandled_exception_filter 00000001800138a0 f   MSVCRT:utility_desktop.obj
 0001:00012904       _RTC_Initialize            0000000180013904 f   MSVCRT:initsect.obj
 0001:00012940       _RTC_Terminate             0000000180013940 f   MSVCRT:initsect.obj
 0001:0001297c       _guard_check_icall_nop     000000018001397c f i MSVCRT:guard_support.obj
 0001:00012980       ReadNoFence64              0000000180013980 f i MSVCRT:guard_support.obj
 0001:00012984       ReadPointerNoFence         0000000180013984 f i MSVCRT:guard_support.obj
 0001:00012988       __castguard_check_failure_debugbreak 0000000180013988 f i MSVCRT:guard_support.obj
 0001:000129a4       __castguard_check_failure_fastfail 00000001800139a4 f i MSVCRT:guard_support.obj
 0001:000129c8       __castguard_check_failure_nop 00000001800139c8 f i MSVCRT:guard_support.obj
 0001:000129cc       __castguard_check_failure_os_handled 00000001800139cc f i MSVCRT:guard_support.obj
 0001:00012a18       __castguard_check_failure_user_handled 0000000180013a18 f i MSVCRT:guard_support.obj
 0001:00012a8c       __castguard_set_user_handler 0000000180013a8c f i MSVCRT:guard_support.obj
 0001:00012a98       __castguard_slow_path_check_debugbreak 0000000180013a98 f i MSVCRT:guard_support.obj
 0001:00012acc       __castguard_slow_path_check_fastfail 0000000180013acc f i MSVCRT:guard_support.obj
 0001:00012b08       __castguard_slow_path_check_nop 0000000180013b08 f i MSVCRT:guard_support.obj
 0001:00012b0c       __castguard_slow_path_check_os_handled 0000000180013b0c f i MSVCRT:guard_support.obj
 0001:00012b58       __castguard_slow_path_check_user_handled 0000000180013b58 f i MSVCRT:guard_support.obj
 0001:00012bc4       _guard_icall_checks_enforced 0000000180013bc4 f i MSVCRT:guard_support.obj
 0001:00012bdc       _guard_rf_checks_enforced  0000000180013bdc f i MSVCRT:guard_support.obj
 0001:00012be0       __isa_available_init       0000000180013be0 f   MSVCRT:cpu_disp.obj
 0001:00012e78       _get_startup_argv_mode     0000000180013e78 f   MSVCRT:argv_mode.obj
 0001:00012e80       __scrt_is_ucrt_dll_in_use  0000000180013e80 f   MSVCRT:ucrt_detection.obj
 0001:00012e90       RtlCaptureContext          0000000180013e90 f   kernel32:KERNEL32.dll
 0001:00012e96       RtlLookupFunctionEntry     0000000180013e96 f   kernel32:KERNEL32.dll
 0001:00012e9c       RtlVirtualUnwind           0000000180013e9c f   kernel32:KERNEL32.dll
 0001:00012ea2       UnhandledExceptionFilter   0000000180013ea2 f   kernel32:KERNEL32.dll
 0001:00012ea8       SetUnhandledExceptionFilter 0000000180013ea8 f   kernel32:KERNEL32.dll
 0001:00012eae       GetCurrentProcess          0000000180013eae f   kernel32:KERNEL32.dll
 0001:00012eb4       TerminateProcess           0000000180013eb4 f   kernel32:KERNEL32.dll
 0001:00012eba       IsProcessorFeaturePresent  0000000180013eba f   kernel32:KERNEL32.dll
 0001:00012ec0       QueryPerformanceCounter    0000000180013ec0 f   kernel32:KERNEL32.dll
 0001:00012ec6       GetCurrentProcessId        0000000180013ec6 f   kernel32:KERNEL32.dll
 0001:00012ecc       GetCurrentThreadId         0000000180013ecc f   kernel32:KERNEL32.dll
 0001:00012ed2       GetSystemTimeAsFileTime    0000000180013ed2 f   kernel32:KERNEL32.dll
 0001:00012ed8       DisableThreadLibraryCalls  0000000180013ed8 f   kernel32:KERNEL32.dll
 0001:00012ede       InitializeSListHead        0000000180013ede f   kernel32:KERNEL32.dll
 0001:00012ee4       IsDebuggerPresent          0000000180013ee4 f   kernel32:KERNEL32.dll
 0001:00012eea       GetStartupInfoW            0000000180013eea f   kernel32:KERNEL32.dll
 0001:00012ef0       GetModuleHandleW           0000000180013ef0 f   kernel32:KERNEL32.dll
 0001:00012ef6       memset                     0000000180013ef6 f   vcruntime:VCRUNTIME140.dll
 0001:00012efc       memcpy                     0000000180013efc f   vcruntime:VCRUNTIME140.dll
 0001:00012f02       __C_specific_handler       0000000180013f02 f   vcruntime:VCRUNTIME140.dll
 0001:00012f08       __std_type_info_destroy_list 0000000180013f08 f   vcruntime:VCRUNTIME140.dll
 0001:00012f0e       __current_exception        0000000180013f0e f   vcruntime:VCRUNTIME140.dll
 0001:00012f14       __current_exception_context 0000000180013f14 f   vcruntime:VCRUNTIME140.dll
 0001:00012f1a       strcmp                     0000000180013f1a f   ucrt:api-ms-win-crt-string-l1-1-0.dll
 0001:00012f20       strcat                     0000000180013f20 f   ucrt:api-ms-win-crt-string-l1-1-0.dll
 0001:00012f26       __stdio_common_vsprintf    0000000180013f26 f   ucrt:api-ms-win-crt-stdio-l1-1-0.dll
 0001:00012f2c       free                       0000000180013f2c f   ucrt:api-ms-win-crt-heap-l1-1-0.dll
 0001:00012f32       malloc                     0000000180013f32 f   ucrt:api-ms-win-crt-heap-l1-1-0.dll
 0001:00012f38       strlen                     0000000180013f38 f   ucrt:api-ms-win-crt-string-l1-1-0.dll
 0001:00012f3e       _initterm                  0000000180013f3e f   ucrt:api-ms-win-crt-runtime-l1-1-0.dll
 0001:00012f44       _initterm_e                0000000180013f44 f   ucrt:api-ms-win-crt-runtime-l1-1-0.dll
 0001:00012f4a       _seh_filter_dll            0000000180013f4a f   ucrt:api-ms-win-crt-runtime-l1-1-0.dll
 0001:00012f50       _configure_narrow_argv     0000000180013f50 f   ucrt:api-ms-win-crt-runtime-l1-1-0.dll
 0001:00012f56       _initialize_narrow_environment 0000000180013f56 f   ucrt:api-ms-win-crt-runtime-l1-1-0.dll
 0001:00012f5c       _initialize_onexit_table   0000000180013f5c f   ucrt:api-ms-win-crt-runtime-l1-1-0.dll
 0001:00012f62       _register_onexit_function  0000000180013f62 f   ucrt:api-ms-win-crt-runtime-l1-1-0.dll
 0001:00012f68       _execute_onexit_table      0000000180013f68 f   ucrt:api-ms-win-crt-runtime-l1-1-0.dll
 0001:00012f6e       _crt_atexit                0000000180013f6e f   ucrt:api-ms-win-crt-runtime-l1-1-0.dll
 0001:00012f74       _crt_at_quick_exit         0000000180013f74 f   ucrt:api-ms-win-crt-runtime-l1-1-0.dll
 0001:00012f7a       _cexit                     0000000180013f7a f   ucrt:api-ms-win-crt-runtime-l1-1-0.dll
 0001:00012f80       terminate                  0000000180013f80 f   ucrt:api-ms-win-crt-runtime-l1-1-0.dll
 0001:00012f88       __acrt_initialize          0000000180013f88 f   MSVCRT:ucrt_stubs.obj
 0001:00012f88       __scrt_stub_for_acrt_initialize 0000000180013f88 f   MSVCRT:ucrt_stubs.obj
 0001:00012f88       __vcrt_initialize          0000000180013f88 f   MSVCRT:ucrt_stubs.obj
 0001:00012f8c       __acrt_thread_attach       0000000180013f8c f   MSVCRT:ucrt_stubs.obj
 0001:00012f8c       __scrt_stub_for_acrt_thread_attach 0000000180013f8c f   MSVCRT:ucrt_stubs.obj
 0001:00012f8c       __vcrt_thread_attach       0000000180013f8c f   MSVCRT:ucrt_stubs.obj
 0001:00012f90       __acrt_thread_detach       0000000180013f90 f   MSVCRT:ucrt_stubs.obj
 0001:00012f90       __scrt_stub_for_acrt_thread_detach 0000000180013f90 f   MSVCRT:ucrt_stubs.obj
 0001:00012f90       __vcrt_thread_detach       0000000180013f90 f   MSVCRT:ucrt_stubs.obj
 0001:00012f94       __acrt_uninitialize        0000000180013f94 f   MSVCRT:ucrt_stubs.obj
 0001:00012f94       __scrt_stub_for_acrt_uninitialize 0000000180013f94 f   MSVCRT:ucrt_stubs.obj
 0001:00012f94       __vcrt_uninitialize        0000000180013f94 f   MSVCRT:ucrt_stubs.obj
 0001:00012f98       __acrt_uninitialize_critical 0000000180013f98 f   MSVCRT:ucrt_stubs.obj
 0001:00012f98       __scrt_stub_for_acrt_uninitialize_critical 0000000180013f98 f   MSVCRT:ucrt_stubs.obj
 0001:00012f98       __vcrt_uninitialize_critical 0000000180013f98 f   MSVCRT:ucrt_stubs.obj
 0001:00012f9c       __scrt_stub_for_is_c_termination_complete 0000000180013f9c f   MSVCRT:ucrt_stubs.obj
 0001:00012f9c       _is_c_termination_complete 0000000180013f9c f   MSVCRT:ucrt_stubs.obj
 0001:00012fb0       _guard_dispatch_icall_nop  0000000180013fb0 f   MSVCRT:guard_dispatch.obj
 0001:00012fd0       _guard_xfg_dispatch_icall_nop 0000000180013fd0 f   MSVCRT:guard_xfg_dispatch.obj
 0002:00000000       __imp_IsProcessorFeaturePresent 0000000180015000     kernel32:KERNEL32.dll
 0002:00000008       __imp_QueryPerformanceCounter 0000000180015008     kernel32:KERNEL32.dll
 0002:00000010       __imp_RtlCaptureContext    0000000180015010     kernel32:KERNEL32.dll
 0002:00000018       __imp_RtlLookupFunctionEntry 0000000180015018     kernel32:KERNEL32.dll
 0002:00000020       __imp_GetCurrentProcessId  0000000180015020     kernel32:KERNEL32.dll
 0002:00000028       __imp_GetCurrentThreadId   0000000180015028     kernel32:KERNEL32.dll
 0002:00000030       __imp_GetSystemTimeAsFileTime 0000000180015030     kernel32:KERNEL32.dll
 0002:00000038       __imp_DisableThreadLibraryCalls 0000000180015038     kernel32:KERNEL32.dll
 0002:00000040       __imp_InitializeSListHead  0000000180015040     kernel32:KERNEL32.dll
 0002:00000048       __imp_IsDebuggerPresent    0000000180015048     kernel32:KERNEL32.dll
 0002:00000050       __imp_GetStartupInfoW      0000000180015050     kernel32:KERNEL32.dll
 0002:00000058       __imp_GetModuleHandleW     0000000180015058     kernel32:KERNEL32.dll
 0002:00000060       __imp_GetCurrentProcess    0000000180015060     kernel32:KERNEL32.dll
 0002:00000068       __imp_SetUnhandledExceptionFilter 0000000180015068     kernel32:KERNEL32.dll
 0002:00000070       __imp_UnhandledExceptionFilter 0000000180015070     kernel32:KERNEL32.dll
 0002:00000078       __imp_RtlVirtualUnwind     0000000180015078     kernel32:KERNEL32.dll
 0002:00000080       __imp_TerminateProcess     0000000180015080     kernel32:KERNEL32.dll
 0002:00000088       \177KERNEL32_NULL_THUNK_DATA 0000000180015088     kernel32:KERNEL32.dll
 0002:00000090       __imp_memset               0000000180015090     vcruntime:VCRUNTIME140.dll
 0002:00000098       __imp_memcpy               0000000180015098     vcruntime:VCRUNTIME140.dll
 0002:000000a0       __imp___C_specific_handler 00000001800150a0     vcruntime:VCRUNTIME140.dll
 0002:000000a8       __imp___std_type_info_destroy_list 00000001800150a8     vcruntime:VCRUNTIME140.dll
 0002:000000b0       __imp___current_exception  00000001800150b0     vcruntime:VCRUNTIME140.dll
 0002:000000b8       __imp___current_exception_context 00000001800150b8     vcruntime:VCRUNTIME140.dll
 0002:000000c0       \177VCRUNTIME140_NULL_THUNK_DATA 00000001800150c0     vcruntime:VCRUNTIME140.dll
 0002:000000c8       __imp_malloc               00000001800150c8     ucrt:api-ms-win-crt-heap-l1-1-0.dll
 0002:000000d0       __imp_free                 00000001800150d0     ucrt:api-ms-win-crt-heap-l1-1-0.dll
 0002:000000d8       \177api-ms-win-crt-heap-l1-1-0_NULL_THUNK_DATA 00000001800150d8     ucrt:api-ms-win-crt-heap-l1-1-0.dll
 0002:000000e0       __imp__initterm_e          00000001800150e0     ucrt:api-ms-win-crt-runtime-l1-1-0.dll
 0002:000000e8       __imp__seh_filter_dll      00000001800150e8     ucrt:api-ms-win-crt-runtime-l1-1-0.dll
 0002:000000f0       __imp__initialize_narrow_environment 00000001800150f0     ucrt:api-ms-win-crt-runtime-l1-1-0.dll
 0002:000000f8       __imp__configure_narrow_argv 00000001800150f8     ucrt:api-ms-win-crt-runtime-l1-1-0.dll
 0002:00000100       __imp__register_onexit_function 0000000180015100     ucrt:api-ms-win-crt-runtime-l1-1-0.dll
 0002:00000108       __imp__execute_onexit_table 0000000180015108     ucrt:api-ms-win-crt-runtime-l1-1-0.dll
 0002:00000110       __imp__crt_atexit          0000000180015110     ucrt:api-ms-win-crt-runtime-l1-1-0.dll
 0002:00000118       __imp__crt_at_quick_exit   0000000180015118     ucrt:api-ms-win-crt-runtime-l1-1-0.dll
 0002:00000120       __imp__cexit               0000000180015120     ucrt:api-ms-win-crt-runtime-l1-1-0.dll
 0002:00000128       __imp_terminate            0000000180015128     ucrt:api-ms-win-crt-runtime-l1-1-0.dll
 0002:00000130       __imp__initialize_onexit_table 0000000180015130     ucrt:api-ms-win-crt-runtime-l1-1-0.dll
 0002:00000138       __imp__initterm            0000000180015138     ucrt:api-ms-win-crt-runtime-l1-1-0.dll
 0002:00000140       \177api-ms-win-crt-runtime-l1-1-0_NULL_THUNK_DATA 0000000180015140     ucrt:api-ms-win-crt-runtime-l1-1-0.dll
 0002:00000148       __imp___stdio_common_vsprintf 0000000180015148     ucrt:api-ms-win-crt-stdio-l1-1-0.dll
 0002:00000150       \177api-ms-win-crt-stdio-l1-1-0_NULL_THUNK_DATA 0000000180015150     ucrt:api-ms-win-crt-stdio-l1-1-0.dll
 0002:00000158       __imp_strlen               0000000180015158     ucrt:api-ms-win-crt-string-l1-1-0.dll
 0002:00000160       __imp_strcat               0000000180015160     ucrt:api-ms-win-crt-string-l1-1-0.dll
 0002:00000168       __imp_strcmp               0000000180015168     ucrt:api-ms-win-crt-string-l1-1-0.dll
 0002:00000170       \177api-ms-win-crt-string-l1-1-0_NULL_THUNK_DATA 0000000180015170     ucrt:api-ms-win-crt-string-l1-1-0.dll
 0002:00000178       __imp_covrtStateInitFcn    0000000180015178     libcovrt:libcovrt.dll
 0002:00000180       __imp_covrtEmlMcdcEval     0000000180015180     libcovrt:libcovrt.dll
 0002:00000188       __imp_covrtEmlCondEval     0000000180015188     libcovrt:libcovrt.dll
 0002:00000190       __imp_covrtEmlIfEval       0000000180015190     libcovrt:libcovrt.dll
 0002:00000198       __imp_covrtEmlFcnEval      0000000180015198     libcovrt:libcovrt.dll
 0002:000001a0       __imp_covrtEmlRelationalInitFcn 00000001800151a0     libcovrt:libcovrt.dll
 0002:000001a8       __imp_covrtEmlMCDCInitFcn  00000001800151a8     libcovrt:libcovrt.dll
 0002:000001b0       __imp_covrtEmlIfInitFcn    00000001800151b0     libcovrt:libcovrt.dll
 0002:000001b8       __imp_covrtEmlFcnInitFcn   00000001800151b8     libcovrt:libcovrt.dll
 0002:000001c0       __imp_covrtEmlInitFcn      00000001800151c0     libcovrt:libcovrt.dll
 0002:000001c8       __imp_covrtTransInitFcn    00000001800151c8     libcovrt:libcovrt.dll
 0002:000001d0       __imp_covrtDeleteStateflowInstanceData 00000001800151d0     libcovrt:libcovrt.dll
 0002:000001d8       __imp_covrtChartInitFcn    00000001800151d8     libcovrt:libcovrt.dll
 0002:000001e0       __imp_covrtCreateStateflowInstanceData 00000001800151e0     libcovrt:libcovrt.dll
 0002:000001e8       __imp_covrtRelationalopUpdateFcn 00000001800151e8     libcovrt:libcovrt.dll
 0002:000001f0       __imp_covrtSigUpdateFcn    00000001800151f0     libcovrt:libcovrt.dll
 0002:000001f8       __imp_covrtSigUpdateFcnAssumingCovEnabled 00000001800151f8     libcovrt:libcovrt.dll
 0002:00000200       __imp_covrtIsSigCovEnabledFcn 0000000180015200     libcovrt:libcovrt.dll
 0002:00000208       \177libcovrt_NULL_THUNK_DATA 0000000180015208     libcovrt:libcovrt.dll
 0002:00000210       __imp_emlrtLicenseCheckR2022a 0000000180015210     libemlrt:libemlrt.dll
 0002:00000218       \177libemlrt_NULL_THUNK_DATA 0000000180015218     libemlrt:libemlrt.dll
 0002:00000220       __imp_mexMakeArrayPersistent_800 0000000180015220     libmex:libmex.dll
 0002:00000228       __imp_mexLock_800          0000000180015228     libmex:libmex.dll
 0002:00000230       __imp_mexWarnMsgTxt_800    0000000180015230     libmex:libmex.dll
 0002:00000238       __imp_mexUnlock_800        0000000180015238     libmex:libmex.dll
 0002:00000240       __imp_mexIsLocked_800      0000000180015240     libmex:libmex.dll
 0002:00000248       __imp_mexCallMATLAB_800    0000000180015248     libmex:libmex.dll
 0002:00000250       __imp_mexErrMsgTxt_800     0000000180015250     libmex:libmex.dll
 0002:00000258       \177libmex_NULL_THUNK_DATA 0000000180015258     libmex:libmex.dll
 0002:00000260       __imp_muDoubleScalarAbs    0000000180015260     libmwmathutil:libmwmathutil.dll
 0002:00000268       __imp_muDoubleScalarSqrt   0000000180015268     libmwmathutil:libmwmathutil.dll
 0002:00000270       \177libmwmathutil_NULL_THUNK_DATA 0000000180015270     libmwmathutil:libmwmathutil.dll
 0002:00000278       __imp_erode_binary_ones33_tbb 0000000180015278     libmwmorphop_binary_tbb:libmwmorphop_binary_tbb.dll
 0002:00000280       \177libmwmorphop_binary_tbb_NULL_THUNK_DATA 0000000180015280     libmwmorphop_binary_tbb:libmwmorphop_binary_tbb.dll
 0002:00000288       __imp_mxIsChar_800         0000000180015288     libmx:libmx.dll
 0002:00000290       __imp_mxGetScalar_800      0000000180015290     libmx:libmx.dll
 0002:00000298       __imp_mxCreateDoubleScalar_800 0000000180015298     libmx:libmx.dll
 0002:000002a0       __imp_mxGetN_800           00000001800152a0     libmx:libmx.dll
 0002:000002a8       __imp_mxIsComplex_800      00000001800152a8     libmx:libmx.dll
 0002:000002b0       __imp_mxIsNumeric_800      00000001800152b0     libmx:libmx.dll
 0002:000002b8       __imp_mxGetClassID_800     00000001800152b8     libmx:libmx.dll
 0002:000002c0       __imp_mxGetM_800           00000001800152c0     libmx:libmx.dll
 0002:000002c8       __imp_mxCalloc_800         00000001800152c8     libmx:libmx.dll
 0002:000002d0       __imp_mxCreateStructMatrix_800 00000001800152d0     libmx:libmx.dll
 0002:000002d8       __imp_mxCreateCellMatrix_800 00000001800152d8     libmx:libmx.dll
 0002:000002e0       __imp_mxCreateString_800   00000001800152e0     libmx:libmx.dll
 0002:000002e8       __imp_mxSetField_800       00000001800152e8     libmx:libmx.dll
 0002:000002f0       __imp_mxGetPr_800          00000001800152f0     libmx:libmx.dll
 0002:000002f8       __imp_mxDuplicateArray_800 00000001800152f8     libmx:libmx.dll
 0002:00000300       __imp_mxGetString_800      0000000180015300     libmx:libmx.dll
 0002:00000308       __imp_mxCreateDoubleMatrix_800 0000000180015308     libmx:libmx.dll
 0002:00000310       __imp_mxDestroyArray_800   0000000180015310     libmx:libmx.dll
 0002:00000318       __imp_mxSetCell_800        0000000180015318     libmx:libmx.dll
 0002:00000320       \177libmx_NULL_THUNK_DATA  0000000180015320     libmx:libmx.dll
 0002:00000328       __imp_utMalloc             0000000180015328     libut:libut.dll
 0002:00000330       __imp_utFree               0000000180015330     libut:libut.dll
 0002:00000338       \177libut_NULL_THUNK_DATA  0000000180015338     libut:libut.dll
 0002:00000340       __imp_getRuntimeInstanceInfoAsVoid 0000000180015340     sf_runtime:sf_runtime.dll
 0002:00000348       __imp_call_sf_machine_global_method_dispatcher 0000000180015348     sf_runtime:sf_runtime.dll
 0002:00000350       __imp_callMdlMethodAndReportError 0000000180015350     sf_runtime:sf_runtime.dll
 0002:00000358       __imp_sf_mex_error_direct_call 0000000180015358     sf_runtime:sf_runtime.dll
 0002:00000360       __imp_sf_clear_error_manager_info 0000000180015360     sf_runtime:sf_runtime.dll
 0002:00000368       __imp_sf_get_ChartInfoStruct_CodeGen 0000000180015368     sf_runtime:sf_runtime.dll
 0002:00000370       __imp_ssGetOutputPortSignal_wrapper 0000000180015370     sf_runtime:sf_runtime.dll
 0002:00000378       __imp_ssGetInputPortSignal_wrapper 0000000180015378     sf_runtime:sf_runtime.dll
 0002:00000380       __imp_sf_mex_import        0000000180015380     sf_runtime:sf_runtime.dll
 0002:00000388       __imp_sf_mex_destroy       0000000180015388     sf_runtime:sf_runtime.dll
 0002:00000390       __imp_sf_mex_dup           0000000180015390     sf_runtime:sf_runtime.dll
 0002:00000398       __imp_sf_mex_assign        0000000180015398     sf_runtime:sf_runtime.dll
 0002:000003a0       __imp_sf_mex_getcell       00000001800153a0     sf_runtime:sf_runtime.dll
 0002:000003a8       __imp_sf_mex_setcell       00000001800153a8     sf_runtime:sf_runtime.dll
 0002:000003b0       __imp_sf_mex_createcellmatrix 00000001800153b0     sf_runtime:sf_runtime.dll
 0002:000003b8       __imp_sf_mex_create        00000001800153b8     sf_runtime:sf_runtime.dll
 0002:000003c0       __imp_sf_mex_error_message 00000001800153c0     sf_runtime:sf_runtime.dll
 0002:000003c8       __imp_sf_mex_call          00000001800153c8     sf_runtime:sf_runtime.dll
 0002:000003d0       __imp_mdlProcessParamsCommon 00000001800153d0     sf_runtime:sf_runtime.dll
 0002:000003d8       __imp_sf_set_work_widths   00000001800153d8     sf_runtime:sf_runtime.dll
 0002:000003e0       __imp_sf_get_time          00000001800153e0     sf_runtime:sf_runtime.dll
 0002:000003e8       __imp_sf_clear_rtw_identifier 00000001800153e8     sf_runtime:sf_runtime.dll
 0002:000003f0       __imp_sim_mode_is_external 00000001800153f0     sf_runtime:sf_runtime.dll
 0002:000003f8       __imp_sim_mode_is_rtw_gen  00000001800153f8     sf_runtime:sf_runtime.dll
 0002:00000400       __imp_sfSetAnimationVectors 0000000180015400     sf_runtime:sf_runtime.dll
 0002:00000408       __imp_sf_get_chart_instance_ptr 0000000180015408     sf_runtime:sf_runtime.dll
 0002:00000410       __imp_sfrtGetCovrtInstance 0000000180015410     sf_runtime:sf_runtime.dll
 0002:00000418       __imp_sfrtGetEmlrtCtx      0000000180015418     sf_runtime:sf_runtime.dll
 0002:00000420       __imp_sf_reset_warnings_ChartRunTimeInfo 0000000180015420     sf_runtime:sf_runtime.dll
 0002:00000428       __imp_sf_free_ChartRunTimeInfo 0000000180015428     sf_runtime:sf_runtime.dll
 0002:00000430       __imp_sf_init_ChartRunTimeInfo 0000000180015430     sf_runtime:sf_runtime.dll
 0002:00000438       __imp_sf_mex_decode        0000000180015438     sf_runtime:sf_runtime.dll
 0002:00000440       __imp_sf_load_rtw_optimization_info 0000000180015440     sf_runtime:sf_runtime.dll
 0002:00000448       __imp_sf_get_hasSeparateUpdateOutputs 0000000180015448     sf_runtime:sf_runtime.dll
 0002:00000450       \177sf_runtime_NULL_THUNK_DATA 0000000180015450     sf_runtime:sf_runtime.dll
 0002:00000458       __guard_check_icall_fptr   0000000180015458     MSVCRT:guard_support.obj
 0002:00000460       __guard_xfg_check_icall_fptr 0000000180015460     MSVCRT:guard_support.obj
 0002:00000468       __guard_dispatch_icall_fptr 0000000180015468     MSVCRT:guard_support.obj
 0002:00000470       __guard_xfg_dispatch_icall_fptr 0000000180015470     MSVCRT:guard_support.obj
 0002:00000478       __guard_xfg_table_dispatch_icall_fptr 0000000180015478     MSVCRT:guard_support.obj
 0002:00000480       __castguard_check_failure_os_handled_fptr 0000000180015480     MSVCRT:guard_support.obj
 0002:00000488       __guard_memcpy_fptr        0000000180015488     vcruntime:softmemtag.obj
 0002:00000490       __xc_a                     0000000180015490     MSVCRT:initializers.obj
 0002:00000498       __xc_z                     0000000180015498     MSVCRT:initializers.obj
 0002:000004a0       __xi_a                     00000001800154a0     MSVCRT:initializers.obj
 0002:000004a8       __xi_z                     00000001800154a8     MSVCRT:initializers.obj
 0002:000004b0       __xp_a                     00000001800154b0     MSVCRT:initializers.obj
 0002:000004b8       __xp_z                     00000001800154b8     MSVCRT:initializers.obj
 0002:000004c0       __xt_a                     00000001800154c0     MSVCRT:initializers.obj
 0002:000004c8       __xt_z                     00000001800154c8     MSVCRT:initializers.obj
 0002:000004d0       __real@4174ffbd70000000    00000001800154d0     flightControlSystem_sfun.obj
 0002:000004d8       __real@418f503920000000    00000001800154d8     flightControlSystem_sfun.obj
 0002:000004e0       __real@41b92f8712000000    00000001800154e0     flightControlSystem_sfun.obj
 0002:000004e8       __real@41bad2f744000000    00000001800154e8     flightControlSystem_sfun.obj
 0002:000004f0       __real@41cb1a5378800000    00000001800154f0     flightControlSystem_sfun.obj
 0002:000004f8       __real@41dd4ff610400000    00000001800154f8     flightControlSystem_sfun.obj
 0002:00000500       __real@41e3f2a9e2200000    0000000180015500     flightControlSystem_sfun.obj
 0002:00000508       __real@41e3fa3198000000    0000000180015508     flightControlSystem_sfun.obj
 0002:00000510       __real@41e4f97bc3200000    0000000180015510     flightControlSystem_sfun.obj
 0002:00000518       __real@41e5ea5a70200000    0000000180015518     flightControlSystem_sfun.obj
 0002:00000520       __real@41eb30c5b0800000    0000000180015520     flightControlSystem_sfun.obj
 0002:00000528       __real@41ed0b63b6c00000    0000000180015528     flightControlSystem_sfun.obj
 0002:00000568       __real@0000000000000000    0000000180015568     c1_flightControlSystem.obj
 0002:00000570       __real@3eb0c6f7a0b5ed8d    0000000180015570     c1_flightControlSystem.obj
 0002:00000578       __real@3fd0000000000000    0000000180015578     c1_flightControlSystem.obj
 0002:00000580       __real@3fd3333333333333    0000000180015580     c1_flightControlSystem.obj
 0002:00000588       __real@3fdccccccccccccd    0000000180015588     c1_flightControlSystem.obj
 0002:00000590       __real@3fe4cccccccccccd    0000000180015590     c1_flightControlSystem.obj
 0002:00000598       __real@3fe6666666666666    0000000180015598     c1_flightControlSystem.obj
 0002:000005a0       __real@3fe8000000000000    00000001800155a0     c1_flightControlSystem.obj
 0002:000005a8       __real@3ff0000000000000    00000001800155a8     c1_flightControlSystem.obj
 0002:000005b0       __real@4000000000000000    00000001800155b0     c1_flightControlSystem.obj
 0002:000005b8       __real@4008000000000000    00000001800155b8     c1_flightControlSystem.obj
 0002:000005c0       __real@4024000000000000    00000001800155c0     c1_flightControlSystem.obj
 0002:000005c8       __real@402921fb54442d18    00000001800155c8     c1_flightControlSystem.obj
 0002:000005d0       __real@4034000000000000    00000001800155d0     c1_flightControlSystem.obj
 0002:000005d8       __real@4044000000000000    00000001800155d8     c1_flightControlSystem.obj
 0002:000005e0       __real@4046000000000000    00000001800155e0     c1_flightControlSystem.obj
 0002:000005e8       __real@4054000000000000    00000001800155e8     c1_flightControlSystem.obj
 0002:000005f0       __real@4056400000000000    00000001800155f0     c1_flightControlSystem.obj
 0002:000005f8       __real@405b800000000000    00000001800155f8     c1_flightControlSystem.obj
 0002:00000600       __real@405e000000000000    0000000180015600     c1_flightControlSystem.obj
 0002:00000608       __real@4079000000000000    0000000180015608     c1_flightControlSystem.obj
 0002:00000610       __real@41c4682605000000    0000000180015610     c1_flightControlSystem.obj
 0002:00000618       __real@41d9539c7d000000    0000000180015618     c1_flightControlSystem.obj
 0002:00000620       __real@41e2f15a8fa00000    0000000180015620     c1_flightControlSystem.obj
 0002:00000628       __real@41e6529ae8a00000    0000000180015628     c1_flightControlSystem.obj
 0002:00000630       DYNAMIC_DIMENSION_DEF      0000000180015630     flightControlSystem_sfun_registry.obj
 0002:00000648       __real@4010000000000000    0000000180015648     flightControlSystem_sfun_registry.obj
 0002:00000650       __real@41602cbca0000000    0000000180015650     flightControlSystem_sfun_registry.obj
 0002:00000658       __real@bff0000000000000    0000000180015658     flightControlSystem_sfun_registry.obj
 0002:00000670       _pDefaultRawDllMain        0000000180015670     MSVCRT:dll_dllmain.obj
 0002:00000670       _pRawDllMain               0000000180015670     MSVCRT:dll_dllmain.obj
 0002:00000680       __xmm@ffffffffffffffffffffffffffffffff 0000000180015680     MSVCRT:utility.obj
 0002:00000690       _load_config_used          0000000180015690     MSVCRT:loadcfg.obj
 0002:00000800       __CastGuardVftablesStart   0000000180015800     MSVCRT:guard_support.obj
 0002:00000880       __CastGuardVftablesEnd     0000000180015880     MSVCRT:guard_support.obj
 0002:00000900       __volatile_metadata        0000000180015900     <linker-defined>
 0002:00000cf8       __rtc_iaa                  0000000180015cf8     MSVCRT:initsect.obj
 0002:00000d00       __rtc_izz                  0000000180015d00     MSVCRT:initsect.obj
 0002:00000d08       __rtc_taa                  0000000180015d08     MSVCRT:initsect.obj
 0002:00000d10       __rtc_tzz                  0000000180015d10     MSVCRT:initsect.obj
 0002:000017b4       __IMPORT_DESCRIPTOR_libmwmorphop_binary_tbb 00000001800167b4     libmwmorphop_binary_tbb:libmwmorphop_binary_tbb.dll
 0002:000017c8       __IMPORT_DESCRIPTOR_sf_runtime 00000001800167c8     sf_runtime:sf_runtime.dll
 0002:000017dc       __IMPORT_DESCRIPTOR_libmx  00000001800167dc     libmx:libmx.dll
 0002:000017f0       __IMPORT_DESCRIPTOR_libmex 00000001800167f0     libmex:libmex.dll
 0002:00001804       __IMPORT_DESCRIPTOR_libut  0000000180016804     libut:libut.dll
 0002:00001818       __IMPORT_DESCRIPTOR_libmwmathutil 0000000180016818     libmwmathutil:libmwmathutil.dll
 0002:0000182c       __IMPORT_DESCRIPTOR_libemlrt 000000018001682c     libemlrt:libemlrt.dll
 0002:00001840       __IMPORT_DESCRIPTOR_libcovrt 0000000180016840     libcovrt:libcovrt.dll
 0002:00001854       __IMPORT_DESCRIPTOR_KERNEL32 0000000180016854     kernel32:KERNEL32.dll
 0002:00001868       __IMPORT_DESCRIPTOR_VCRUNTIME140 0000000180016868     vcruntime:VCRUNTIME140.dll
 0002:0000187c       __IMPORT_DESCRIPTOR_api-ms-win-crt-string-l1-1-0 000000018001687c     ucrt:api-ms-win-crt-string-l1-1-0.dll
 0002:00001890       __IMPORT_DESCRIPTOR_api-ms-win-crt-stdio-l1-1-0 0000000180016890     ucrt:api-ms-win-crt-stdio-l1-1-0.dll
 0002:000018a4       __IMPORT_DESCRIPTOR_api-ms-win-crt-heap-l1-1-0 00000001800168a4     ucrt:api-ms-win-crt-heap-l1-1-0.dll
 0002:000018b8       __IMPORT_DESCRIPTOR_api-ms-win-crt-runtime-l1-1-0 00000001800168b8     ucrt:api-ms-win-crt-runtime-l1-1-0.dll
 0002:000018cc       __NULL_IMPORT_DESCRIPTOR   00000001800168cc     libmwmorphop_binary_tbb:libmwmorphop_binary_tbb.dll
 0003:00001c70       DYNAMIC_DIMENSION          0000000180019c70     flightControlSystem_sfun_registry.obj
 0003:00004340       __security_cookie          000000018001c340     MSVCRT:gs_cookie.obj
 0003:00004380       __security_cookie_complement 000000018001c380     MSVCRT:gs_cookie.obj
 0003:00004388       _fltused                   000000018001c388     MSVCRT:fltused.obj
 0003:00004390       __scrt_native_dllmain_reason 000000018001c390     MSVCRT:utility.obj
 0003:00004398       __isa_inverted             000000018001c398     MSVCRT:cpu_disp.obj
 0003:000043a0       __isa_available            000000018001c3a0     MSVCRT:cpu_disp.obj
 0003:000043a4       __isa_enabled              000000018001c3a4     MSVCRT:cpu_disp.obj
 0003:000043a8       __memset_fast_string_threshold 000000018001c3a8     MSVCRT:cpu_disp.obj
 0003:000043b0       __memset_nt_threshold      000000018001c3b0     MSVCRT:cpu_disp.obj
 0003:000043c0       __scrt_ucrt_dll_is_in_use  000000018001c3c0     MSVCRT:ucrt_stubs.obj
 0003:00004f30       ?__type_info_root_node@@3U__type_info_node@@A 000000018001cf30     MSVCRT:tncleanup.obj
 0003:00004f40       ?_OptionsStorage@?1??__local_stdio_printf_options@@9@4_KA 000000018001cf40     MSVCRT:default_local_stdio_options.obj
 0003:00004f48       ?_OptionsStorage@?1??__local_stdio_scanf_options@@9@4_KA 000000018001cf48     MSVCRT:default_local_stdio_options.obj
 0003:00004f50       __scrt_current_native_startup_state 000000018001cf50     MSVCRT:utility.obj
 0003:00004f58       __scrt_native_startup_lock 000000018001cf58     MSVCRT:utility.obj
 0003:00004f98       __scrt_debugger_hook_flag  000000018001cf98     MSVCRT:utility_desktop.obj
 0003:00004fa0       __castguard_check_failure_user_handled_fptr 000000018001cfa0     MSVCRT:guard_support.obj
 0003:00004fa8       __avx10_version            000000018001cfa8     MSVCRT:cpu_disp.obj
 0003:00004fac       __favor                    000000018001cfac     MSVCRT:cpu_disp.obj
 0003:00004fb0       ?_OptionsStorage@?1??__local_stdio_printf_options@@9@9 000000018001cfb0     <common>
 0003:00004fb8       __dyn_tls_init_callback    000000018001cfb8     <common>

 entry point at        0001:00012098

 Static symbols

 0000:00000000       _volmd                     0000000180000000     c1_flightControlSystem.obj
 0000:00000000       .debug$S                   0000000180000000     flightControlSystem_sfun.exp
 0000:00000000       _volmd                     0000000180000000     flightControlSystem_sfun.obj
 0000:00000000       _volmd                     0000000180000000     flightControlSystem_sfun_registry.obj
 0000:00000000       .debug$S                   0000000180000000     ucrt:api-ms-win-crt-heap-l1-1-0.dll
 0000:00000000       .debug$S                   0000000180000000     ucrt:api-ms-win-crt-heap-l1-1-0.dll
 0000:00000000       .debug$S                   0000000180000000     ucrt:api-ms-win-crt-runtime-l1-1-0.dll
 0000:00000000       .debug$S                   0000000180000000     ucrt:api-ms-win-crt-runtime-l1-1-0.dll
 0000:00000000       .debug$S                   0000000180000000     ucrt:api-ms-win-crt-runtime-l1-1-0.dll
 0000:00000000       .debug$S                   0000000180000000     ucrt:api-ms-win-crt-runtime-l1-1-0.dll
 0000:00000000       .debug$S                   0000000180000000     ucrt:api-ms-win-crt-runtime-l1-1-0.dll
 0000:00000000       .debug$S                   0000000180000000     ucrt:api-ms-win-crt-runtime-l1-1-0.dll
 0000:00000000       .debug$S                   0000000180000000     ucrt:api-ms-win-crt-runtime-l1-1-0.dll
 0000:00000000       .debug$S                   0000000180000000     ucrt:api-ms-win-crt-runtime-l1-1-0.dll
 0000:00000000       .debug$S                   0000000180000000     ucrt:api-ms-win-crt-runtime-l1-1-0.dll
 0000:00000000       .debug$S                   0000000180000000     ucrt:api-ms-win-crt-runtime-l1-1-0.dll
 0000:00000000       .debug$S                   0000000180000000     ucrt:api-ms-win-crt-runtime-l1-1-0.dll
 0000:00000000       .debug$S                   0000000180000000     ucrt:api-ms-win-crt-runtime-l1-1-0.dll
 0000:00000000       .debug$S                   0000000180000000     ucrt:api-ms-win-crt-stdio-l1-1-0.dll
 0000:00000000       .debug$S                   0000000180000000     ucrt:api-ms-win-crt-string-l1-1-0.dll
 0000:00000000       .debug$S                   0000000180000000     ucrt:api-ms-win-crt-string-l1-1-0.dll
 0000:00000000       .debug$S                   0000000180000000     ucrt:api-ms-win-crt-string-l1-1-0.dll
 0000:00000000       .debug$S                   0000000180000000     kernel32:KERNEL32.dll
 0000:00000000       .debug$S                   0000000180000000     kernel32:KERNEL32.dll
 0000:00000000       .debug$S                   0000000180000000     kernel32:KERNEL32.dll
 0000:00000000       .debug$S                   0000000180000000     kernel32:KERNEL32.dll
 0000:00000000       .debug$S                   0000000180000000     kernel32:KERNEL32.dll
 0000:00000000       .debug$S                   0000000180000000     kernel32:KERNEL32.dll
 0000:00000000       .debug$S                   0000000180000000     kernel32:KERNEL32.dll
 0000:00000000       .debug$S                   0000000180000000     kernel32:KERNEL32.dll
 0000:00000000       .debug$S                   0000000180000000     kernel32:KERNEL32.dll
 0000:00000000       .debug$S                   0000000180000000     kernel32:KERNEL32.dll
 0000:00000000       .debug$S                   0000000180000000     kernel32:KERNEL32.dll
 0000:00000000       .debug$S                   0000000180000000     kernel32:KERNEL32.dll
 0000:00000000       .debug$S                   0000000180000000     kernel32:KERNEL32.dll
 0000:00000000       .debug$S                   0000000180000000     kernel32:KERNEL32.dll
 0000:00000000       .debug$S                   0000000180000000     kernel32:KERNEL32.dll
 0000:00000000       .debug$S                   0000000180000000     kernel32:KERNEL32.dll
 0000:00000000       .debug$S                   0000000180000000     kernel32:KERNEL32.dll
 0000:00000000       _volmd                     0000000180000000     MSVCRT:cpu_disp.obj
 0002:fffeb000       __guard_ehcont_?dllmain_dispatch@@YAHQEAUHINSTANCE__@@KQEAX@Z 0000000180000000     MSVCRT:dll_dllmain.obj
 0002:fffeb000       __guard_fids_?dllmain_dispatch@@YAHQEAUHINSTANCE__@@KQEAX@Z 0000000180000000     MSVCRT:dll_dllmain.obj
 0000:00000000       _volmd                     0000000180000000     MSVCRT:gs_report.obj
 0000:00000000       _volmd                     0000000180000000     MSVCRT:gs_report.obj
 0000:00000000       _volmd                     0000000180000000     MSVCRT:gs_report.obj
 0002:fffeb000       __guard_fids__             0000000180000000     MSVCRT:guard_support.obj
 0002:fffeb000       __guard_fids__             0000000180000000     MSVCRT:guard_support.obj
 0002:fffeb000       __guard_fids__guard_icall_checks_enforced 0000000180000000     MSVCRT:guard_support.obj
 0000:00000000       _volmd                     0000000180000000     MSVCRT:guard_support.obj
 0000:00000000       _volmd                     0000000180000000     MSVCRT:guard_support.obj
 0000:00000000       _volmd                     0000000180000000     MSVCRT:guard_support.obj
 0000:00000000       _volmd                     0000000180000000     MSVCRT:guard_support.obj
 0000:00000000       _volmd                     0000000180000000     MSVCRT:guard_support.obj
 0000:00000000       _volmd                     0000000180000000     MSVCRT:guard_support.obj
 0000:00000000       _volmd                     0000000180000000     MSVCRT:guard_support.obj
 0000:00000000       _volmd                     0000000180000000     MSVCRT:guard_support.obj
 0000:00000000       _volmd                     0000000180000000     MSVCRT:guard_support.obj
 0000:00000000       _volmd                     0000000180000000     MSVCRT:guard_support.obj
 0002:fffeb000       __guard_ehcont___scrt_is_nonwritable_in_current_image 0000000180000000     MSVCRT:utility.obj
 0000:00000000       _volmd                     0000000180000000     MSVCRT:utility.obj
 0000:00000000       _volmd                     0000000180000000     MSVCRT:utility.obj
 0000:00000000       _volmd                     0000000180000000     MSVCRT:utility.obj
 0002:fffeb000       __guard_fids___scrt_set_unhandled_exception_filter 0000000180000000     MSVCRT:utility_desktop.obj
 0000:00000000       _volmd                     0000000180000000     MSVCRT:utility_desktop.obj
 0002:fffeb000       __guard_fids__             0000000180000000     vcruntime:softmemtag.obj
 0000:00000000       .debug$S                   0000000180000000     vcruntime:VCRUNTIME140.dll
 0000:00000000       .debug$S                   0000000180000000     vcruntime:VCRUNTIME140.dll
 0000:00000000       .debug$S                   0000000180000000     vcruntime:VCRUNTIME140.dll
 0000:00000000       .debug$S                   0000000180000000     vcruntime:VCRUNTIME140.dll
 0000:00000000       .debug$S                   0000000180000000     vcruntime:VCRUNTIME140.dll
 0000:00000000       .debug$S                   0000000180000000     vcruntime:VCRUNTIME140.dll
 0000:00000000       .debug$S                   0000000180000000     libcovrt:libcovrt.dll
 0000:00000000       .debug$S                   0000000180000000     libcovrt:libcovrt.dll
 0000:00000000       .debug$S                   0000000180000000     libcovrt:libcovrt.dll
 0000:00000000       .debug$S                   0000000180000000     libcovrt:libcovrt.dll
 0000:00000000       .debug$S                   0000000180000000     libcovrt:libcovrt.dll
 0000:00000000       .debug$S                   0000000180000000     libcovrt:libcovrt.dll
 0000:00000000       .debug$S                   0000000180000000     libcovrt:libcovrt.dll
 0000:00000000       .debug$S                   0000000180000000     libcovrt:libcovrt.dll
 0000:00000000       .debug$S                   0000000180000000     libcovrt:libcovrt.dll
 0000:00000000       .debug$S                   0000000180000000     libcovrt:libcovrt.dll
 0000:00000000       .debug$S                   0000000180000000     libcovrt:libcovrt.dll
 0000:00000000       .debug$S                   0000000180000000     libcovrt:libcovrt.dll
 0000:00000000       .debug$S                   0000000180000000     libcovrt:libcovrt.dll
 0000:00000000       .debug$S                   0000000180000000     libcovrt:libcovrt.dll
 0000:00000000       .debug$S                   0000000180000000     libcovrt:libcovrt.dll
 0000:00000000       .debug$S                   0000000180000000     libcovrt:libcovrt.dll
 0000:00000000       .debug$S                   0000000180000000     libcovrt:libcovrt.dll
 0000:00000000       .debug$S                   0000000180000000     libcovrt:libcovrt.dll
 0000:00000000       .debug$S                   0000000180000000     libemlrt:libemlrt.dll
 0000:00000000       .debug$S                   0000000180000000     libmex:libmex.dll
 0000:00000000       .debug$S                   0000000180000000     libmex:libmex.dll
 0000:00000000       .debug$S                   0000000180000000     libmex:libmex.dll
 0000:00000000       .debug$S                   0000000180000000     libmex:libmex.dll
 0000:00000000       .debug$S                   0000000180000000     libmex:libmex.dll
 0000:00000000       .debug$S                   0000000180000000     libmex:libmex.dll
 0000:00000000       .debug$S                   0000000180000000     libmex:libmex.dll
 0000:00000000       .debug$S                   0000000180000000     libmwmathutil:libmwmathutil.dll
 0000:00000000       .debug$S                   0000000180000000     libmwmathutil:libmwmathutil.dll
 0000:00000000       .debug$S                   0000000180000000     libmwmorphop_binary_tbb:libmwmorphop_binary_tbb.dll
 0000:00000000       .debug$S                   0000000180000000     libmx:libmx.dll
 0000:00000000       .debug$S                   0000000180000000     libmx:libmx.dll
 0000:00000000       .debug$S                   0000000180000000     libmx:libmx.dll
 0000:00000000       .debug$S                   0000000180000000     libmx:libmx.dll
 0000:00000000       .debug$S                   0000000180000000     libmx:libmx.dll
 0000:00000000       .debug$S                   0000000180000000     libmx:libmx.dll
 0000:00000000       .debug$S                   0000000180000000     libmx:libmx.dll
 0000:00000000       .debug$S                   0000000180000000     libmx:libmx.dll
 0000:00000000       .debug$S                   0000000180000000     libmx:libmx.dll
 0000:00000000       .debug$S                   0000000180000000     libmx:libmx.dll
 0000:00000000       .debug$S                   0000000180000000     libmx:libmx.dll
 0000:00000000       .debug$S                   0000000180000000     libmx:libmx.dll
 0000:00000000       .debug$S                   0000000180000000     libmx:libmx.dll
 0000:00000000       .debug$S                   0000000180000000     libmx:libmx.dll
 0000:00000000       .debug$S                   0000000180000000     libmx:libmx.dll
 0000:00000000       .debug$S                   0000000180000000     libmx:libmx.dll
 0000:00000000       .debug$S                   0000000180000000     libmx:libmx.dll
 0000:00000000       .debug$S                   0000000180000000     libmx:libmx.dll
 0000:00000000       .debug$S                   0000000180000000     libmx:libmx.dll
 0000:00000000       .debug$S                   0000000180000000     libut:libut.dll
 0000:00000000       .debug$S                   0000000180000000     libut:libut.dll
 0000:00000000       .debug$S                   0000000180000000     sf_runtime:sf_runtime.dll
 0000:00000000       .debug$S                   0000000180000000     sf_runtime:sf_runtime.dll
 0000:00000000       .debug$S                   0000000180000000     sf_runtime:sf_runtime.dll
 0000:00000000       .debug$S                   0000000180000000     sf_runtime:sf_runtime.dll
 0000:00000000       .debug$S                   0000000180000000     sf_runtime:sf_runtime.dll
 0000:00000000       .debug$S                   0000000180000000     sf_runtime:sf_runtime.dll
 0000:00000000       .debug$S                   0000000180000000     sf_runtime:sf_runtime.dll
 0000:00000000       .debug$S                   0000000180000000     sf_runtime:sf_runtime.dll
 0000:00000000       .debug$S                   0000000180000000     sf_runtime:sf_runtime.dll
 0000:00000000       .debug$S                   0000000180000000     sf_runtime:sf_runtime.dll
 0000:00000000       .debug$S                   0000000180000000     sf_runtime:sf_runtime.dll
 0000:00000000       .debug$S                   0000000180000000     sf_runtime:sf_runtime.dll
 0000:00000000       .debug$S                   0000000180000000     sf_runtime:sf_runtime.dll
 0000:00000000       .debug$S                   0000000180000000     sf_runtime:sf_runtime.dll
 0000:00000000       .debug$S                   0000000180000000     sf_runtime:sf_runtime.dll
 0000:00000000       .debug$S                   0000000180000000     sf_runtime:sf_runtime.dll
 0000:00000000       .debug$S                   0000000180000000     sf_runtime:sf_runtime.dll
 0000:00000000       .debug$S                   0000000180000000     sf_runtime:sf_runtime.dll
 0000:00000000       .debug$S                   0000000180000000     sf_runtime:sf_runtime.dll
 0000:00000000       .debug$S                   0000000180000000     sf_runtime:sf_runtime.dll
 0000:00000000       .debug$S                   0000000180000000     sf_runtime:sf_runtime.dll
 0000:00000000       .debug$S                   0000000180000000     sf_runtime:sf_runtime.dll
 0000:00000000       .debug$S                   0000000180000000     sf_runtime:sf_runtime.dll
 0000:00000000       .debug$S                   0000000180000000     sf_runtime:sf_runtime.dll
 0000:00000000       .debug$S                   0000000180000000     sf_runtime:sf_runtime.dll
 0000:00000000       .debug$S                   0000000180000000     sf_runtime:sf_runtime.dll
 0000:00000000       .debug$S                   0000000180000000     sf_runtime:sf_runtime.dll
 0000:00000000       .debug$S                   0000000180000000     sf_runtime:sf_runtime.dll
 0000:00000000       .debug$S                   0000000180000000     sf_runtime:sf_runtime.dll
 0000:00000000       .debug$S                   0000000180000000     sf_runtime:sf_runtime.dll
 0000:00000000       .debug$S                   0000000180000000     sf_runtime:sf_runtime.dll
 0000:00000000       .debug$S                   0000000180000000     sf_runtime:sf_runtime.dll
 0000:00000000       .debug$S                   0000000180000000     sf_runtime:sf_runtime.dll
 0000:00000000       .debug$S                   0000000180000000     sf_runtime:sf_runtime.dll
 0000:00000010       _volmd                     0000000180000010     c1_flightControlSystem.obj
 0000:00000010       _volmd                     0000000180000010     flightControlSystem_sfun.obj
 0000:00000010       _volmd                     0000000180000010     flightControlSystem_sfun_registry.obj
 0000:00000020       _volmd                     0000000180000020     c1_flightControlSystem.obj
 0000:00000020       _volmd                     0000000180000020     flightControlSystem_sfun.obj
 0000:00000020       _volmd                     0000000180000020     flightControlSystem_sfun_registry.obj
 0000:00000030       _volmd                     0000000180000030     c1_flightControlSystem.obj
 0000:00000030       _volmd                     0000000180000030     flightControlSystem_sfun.obj
 0000:00000030       _volmd                     0000000180000030     flightControlSystem_sfun_registry.obj
 0000:00000040       _volmd                     0000000180000040     flightControlSystem_sfun.obj
 0000:00000040       _volmd                     0000000180000040     flightControlSystem_sfun_registry.obj
 0000:00000050       _volmd                     0000000180000050     flightControlSystem_sfun.obj
 0000:00000050       _volmd                     0000000180000050     flightControlSystem_sfun_registry.obj
 0000:00000060       _volmd                     0000000180000060     flightControlSystem_sfun_registry.obj
 0000:00000070       _volmd                     0000000180000070     flightControlSystem_sfun_registry.obj
 0000:00000080       _volmd                     0000000180000080     flightControlSystem_sfun_registry.obj
 0000:00000090       _volmd                     0000000180000090     flightControlSystem_sfun_registry.obj
 0000:000000a0       _volmd                     00000001800000a0     flightControlSystem_sfun_registry.obj
 0000:000000b0       _volmd                     00000001800000b0     flightControlSystem_sfun_registry.obj
 0000:000000c0       _volmd                     00000001800000c0     flightControlSystem_sfun_registry.obj
 0000:000000d0       _volmd                     00000001800000d0     flightControlSystem_sfun_registry.obj
 0000:000000e0       _volmd                     00000001800000e0     flightControlSystem_sfun_registry.obj
 0000:000000f0       _volmd                     00000001800000f0     flightControlSystem_sfun_registry.obj
 0000:00000100       _volmd                     0000000180000100     flightControlSystem_sfun_registry.obj
 0001:00001160       initialize_c1_flightControlSystem 0000000180002160 f   c1_flightControlSystem.obj
 0001:00001200       initialize_params_c1_flightControlSystem 0000000180002200 f   c1_flightControlSystem.obj
 0001:00001210       mdl_start_c1_flightControlSystem 0000000180002210 f   c1_flightControlSystem.obj
 0001:00001240       mdl_terminate_c1_flightControlSystem 0000000180002240 f   c1_flightControlSystem.obj
 0001:00001250       mdl_setup_runtime_resources_c1_flightControlSystem 0000000180002250 f   c1_flightControlSystem.obj
 0001:000019e0       mdl_cleanup_runtime_resources_c1_flightControlSystem 00000001800029e0 f   c1_flightControlSystem.obj
 0001:00001a10       enable_c1_flightControlSystem 0000000180002a10 f   c1_flightControlSystem.obj
 0001:00001a40       disable_c1_flightControlSystem 0000000180002a40 f   c1_flightControlSystem.obj
 0001:00001a70       sf_gateway_c1_flightControlSystem 0000000180002a70 f   c1_flightControlSystem.obj
 0001:00004810       get_sim_state_c1_flightControlSystem 0000000180005810 f   c1_flightControlSystem.obj
 0001:00004960       set_sim_state_c1_flightControlSystem 0000000180005960 f   c1_flightControlSystem.obj
 0001:00004a20       c1_imerode                 0000000180005a20 f   c1_flightControlSystem.obj
 0001:00004ba0       c1_eml_find                0000000180005ba0 f   c1_flightControlSystem.obj
 0001:00004d70       c1_indexShapeCheck         0000000180005d70 f   c1_flightControlSystem.obj
 0001:00004d80       c1_b_eml_find              0000000180005d80 f   c1_flightControlSystem.obj
 0001:00004f50       c1_mean                    0000000180005f50 f   c1_flightControlSystem.obj
 0001:00005320       c1_sumColumnB              0000000180006320 f   c1_flightControlSystem.obj
 0001:000055d0       c1_sumColumnB4             00000001800065d0 f   c1_flightControlSystem.obj
 0001:00005750       c1_b_sumColumnB            0000000180006750 f   c1_flightControlSystem.obj
 0001:00005a30       c1_c_eml_find              0000000180006a30 f   c1_flightControlSystem.obj
 0001:00005c00       c1_emlrt_marshallIn        0000000180006c00 f   c1_flightControlSystem.obj
 0001:00005c70       c1_b_emlrt_marshallIn      0000000180006c70 f   c1_flightControlSystem.obj
 0001:00005d00       init_dsm_address_info      0000000180006d00 f   c1_flightControlSystem.obj
 0001:00005d10       init_simulink_io_address   0000000180006d10 f   c1_flightControlSystem.obj
 0001:00006000       sf_get_sim_state_info_c1_flightControlSystem 0000000180007000 f   c1_flightControlSystem.obj
 0001:000060c0       sf_opaque_initialize_c1_flightControlSystem 00000001800070c0 f   c1_flightControlSystem.obj
 0001:000060f0       sf_opaque_enable_c1_flightControlSystem 00000001800070f0 f   c1_flightControlSystem.obj
 0001:00006110       sf_opaque_disable_c1_flightControlSystem 0000000180007110 f   c1_flightControlSystem.obj
 0001:00006130       sf_opaque_gateway_c1_flightControlSystem 0000000180007130 f   c1_flightControlSystem.obj
 0001:00006150       sf_opaque_get_sim_state_c1_flightControlSystem 0000000180007150 f   c1_flightControlSystem.obj
 0001:00006180       sf_opaque_set_sim_state_c1_flightControlSystem 0000000180007180 f   c1_flightControlSystem.obj
 0001:000061c0       sf_opaque_cleanup_runtime_resources_c1_flightControlSystem 00000001800071c0 f   c1_flightControlSystem.obj
 0001:00006260       sf_opaque_mdl_start_c1_flightControlSystem 0000000180007260 f   c1_flightControlSystem.obj
 0001:000062a0       sf_opaque_mdl_terminate_c1_flightControlSystem 00000001800072a0 f   c1_flightControlSystem.obj
 0001:000062c0       mdlProcessParameters_c1_flightControlSystem 00000001800072c0 f   c1_flightControlSystem.obj
 0001:000064c0       mdlSetWorkWidths_c1_flightControlSystem 00000001800074c0 f   c1_flightControlSystem.obj
 0001:00006550       mdlRTW_c1_flightControlSystem 0000000180007550 f   c1_flightControlSystem.obj
 0001:00006590       mdlSetupRuntimeResources_c1_flightControlSystem 0000000180007590 f   c1_flightControlSystem.obj
 0001:00009040       $LN197                     000000018000a040     flightControlSystem_sfun_registry.obj
 0001:00009ea4       $LN22                      000000018000aea4     flightControlSystem_sfun_registry.obj
 0001:0000a5a4       $LN26                      000000018000b5a4     flightControlSystem_sfun_registry.obj
 0001:0000ac84       $LN24                      000000018000bc84     flightControlSystem_sfun_registry.obj
 0001:0000b9bc       $LN30                      000000018000c9bc     flightControlSystem_sfun_registry.obj
 0001:0000efd0       ProcessMexSfunctionCmdLineCall 000000018000ffd0 f   flightControlSystem_sfun_registry.obj
 0001:0000f290       mdlSetWorkWidths           0000000180010290 f   flightControlSystem_sfun_registry.obj
 0001:0000f2e0       mdlProcessParameters       00000001800102e0 f   flightControlSystem_sfun_registry.obj
 0001:0000f310       mdl_setup_runtime_resources_processing 0000000180010310 f   flightControlSystem_sfun_registry.obj
 0001:0000f370       mdlSetupRuntimeResources   0000000180010370 f   flightControlSystem_sfun_registry.obj
 0001:0000f3a0       mdl_cleanup_runtime_resources_processing 00000001800103a0 f   flightControlSystem_sfun_registry.obj
 0001:0000f460       mdlCleanupRuntimeResources 0000000180010460 f   flightControlSystem_sfun_registry.obj
 0001:0000f490       mdl_start_processing       0000000180010490 f   flightControlSystem_sfun_registry.obj
 0001:0000f4d0       mdlStart                   00000001800104d0 f   flightControlSystem_sfun_registry.obj
 0001:0000f500       mdl_terminate_processing   0000000180010500 f   flightControlSystem_sfun_registry.obj
 0001:0000f540       mdlTerminate               0000000180010540 f   flightControlSystem_sfun_registry.obj
 0001:0000f570       mdlInitializeSizes         0000000180010570 f   flightControlSystem_sfun_registry.obj
 0001:0000f5a0       mdlInitializeSampleTimes   00000001800105a0 f   flightControlSystem_sfun_registry.obj
 0001:0000f5d0       mdl_outputs_continuous_legacy 00000001800105d0 f   flightControlSystem_sfun_registry.obj
 0001:0000f6e0       mdl_outputs_processing     00000001800106e0 f   flightControlSystem_sfun_registry.obj
 0001:0000f840       mdl_zeroCrossings_processing 0000000180010840 f   flightControlSystem_sfun_registry.obj
 0001:0000f880       mdlZeroCrossings           0000000180010880 f   flightControlSystem_sfun_registry.obj
 0001:0000f8b0       mdl_derivatives_processing 00000001800108b0 f   flightControlSystem_sfun_registry.obj
 0001:0000f900       mdlDerivatives             0000000180010900 f   flightControlSystem_sfun_registry.obj
 0001:0000f930       mdl_initialize_conditions_processing 0000000180010930 f   flightControlSystem_sfun_registry.obj
 0001:0000f980       mdlInitializeConditions    0000000180010980 f   flightControlSystem_sfun_registry.obj
 0001:0000f9b0       mdl_ext_mode_exec_processing 00000001800109b0 f   flightControlSystem_sfun_registry.obj
 0001:0000fa00       mdlExtModeExec             0000000180010a00 f   flightControlSystem_sfun_registry.obj
 0001:0000fa30       mdlRTW                     0000000180010a30 f   flightControlSystem_sfun_registry.obj
 0001:0000fa70       mdl_enable_processing      0000000180010a70 f   flightControlSystem_sfun_registry.obj
 0001:0000fab0       mdlEnable                  0000000180010ab0 f   flightControlSystem_sfun_registry.obj
 0001:0000fae0       mdl_disable_processing     0000000180010ae0 f   flightControlSystem_sfun_registry.obj
 0001:0000fb20       mdlDisable                 0000000180010b20 f   flightControlSystem_sfun_registry.obj
 0001:0000fb50       mdlOutputs                 0000000180010b50 f   flightControlSystem_sfun_registry.obj
 0001:0000fb80       mdl_update_processing      0000000180010b80 f   flightControlSystem_sfun_registry.obj
 0001:0000fbd0       mdlUpdate                  0000000180010bd0 f   flightControlSystem_sfun_registry.obj
 0001:0000fdc0       mdlGetTimeOfNextVarHit     0000000180010dc0 f   flightControlSystem_sfun_registry.obj
 0001:0000fe10       _RegNumInputPortsCB        0000000180010e10 f   flightControlSystem_sfun_registry.obj
 0001:0000fe90       _RegNumOutputPortsCB       0000000180010e90 f   flightControlSystem_sfun_registry.obj
 0001:0000ff10       _CreateSimStruct           0000000180010f10 f   flightControlSystem_sfun_registry.obj
 0001:00010140       _ProcessMexSfunctionCmdLineCall 0000000180011140 f   flightControlSystem_sfun_registry.obj
 0001:00010bc0       ReportIndexOutOfBoundsError 0000000180011bc0 f   flightControlSystem_sfun_registry.obj
 0001:00011b60       capture_current_context    0000000180012b60 f   MSVCRT:gs_report.obj
 0001:00011bd0       capture_previous_context   0000000180012bd0 f   MSVCRT:gs_report.obj
 0001:00011cd0       $$000000                   0000000180012cd0     MSVCRT:amdsecgs.obj
 0001:00011d00       $$000000                   0000000180012d00     MSVCRT:chkstk.obj
 0001:00011d60       ?dllmain_crt_dispatch@@YAHQEAUHINSTANCE__@@KQEAX@Z 0000000180012d60 f   MSVCRT:dll_dllmain.obj
 0001:00011db0       ?dllmain_crt_process_attach@@YAHQEAUHINSTANCE__@@QEAX@Z 0000000180012db0 f   MSVCRT:dll_dllmain.obj
 0001:00011ec8       ?dllmain_crt_process_detach@@YAH_N@Z 0000000180012ec8 f   MSVCRT:dll_dllmain.obj
 0001:00011f4c       ?dllmain_dispatch@@YAHQEAUHINSTANCE__@@KQEAX@Z 0000000180012f4c f   MSVCRT:dll_dllmain.obj
 0001:00012074       ?dllmain_raw@@YAHQEAUHINSTANCE__@@KQEAX@Z 0000000180013074 f   MSVCRT:dll_dllmain.obj
 0001:000120d8       __get_entropy              00000001800130d8 f   MSVCRT:gs_support.obj
 0001:00012270       ?find_pe_section@@YAPEAU_IMAGE_SECTION_HEADER@@QEAE_K@Z 0000000180013270 f   MSVCRT:utility.obj
 0001:000122c4       ?is_potentially_valid_image_base@@YA_NQEAX@Z 00000001800132c4 f   MSVCRT:utility.obj
 0001:00012a00       __castguard_check_failure_os_handled_wrapper 0000000180013a00 f   MSVCRT:guard_support.obj
 0001:00012a50       __castguard_check_failure_user_handled_wrapper 0000000180013a50 f   MSVCRT:guard_support.obj
 0001:00012a6c       __castguard_compat_check   0000000180013a6c f   MSVCRT:guard_support.obj
 0001:00012ba8       __castguard_slow_path_compat_check 0000000180013ba8 f   MSVCRT:guard_support.obj
 0001:00012fa0       $$000000                   0000000180013fa0     MSVCRT:guard_dispatch.obj
 0001:00012fc0       $$000000                   0000000180013fc0     MSVCRT:guard_xfg_dispatch.obj
 0001:00012fd6       ?fin$0@?0??dllmain_crt_process_attach@@YAHQEAUHINSTANCE__@@QEAX@Z@4HA 0000000180013fd6 f   MSVCRT:dll_dllmain.obj
 0001:00012fed       ?fin$0@?0??dllmain_crt_process_detach@@YAH_N@Z@4HA 0000000180013fed f   MSVCRT:dll_dllmain.obj
 0001:00013006       ?fin$1@?0??dllmain_crt_process_detach@@YAH_N@Z@4HA 0000000180014006 f   MSVCRT:dll_dllmain.obj
 0001:0001301a       ?filt$0@?0??dllmain_dispatch@@YAHQEAUHINSTANCE__@@KQEAX@Z@4HA 000000018001401a f   MSVCRT:dll_dllmain.obj
 0001:00013050       __scrt_is_nonwritable_in_current_image$filt$0 0000000180014050 f   MSVCRT:utility.obj
 0002:00000530       ?c1_postfixPredicateTree@?1??mdl_setup_runtime_resources_c1_flightControlSystem@@9@9 0000000180015530     c1_flightControlSystem.obj
 0002:00000544       ?c1_decisionTxtEndIdx@?1??mdl_setup_runtime_resources_c1_flightControlSystem@@9@9 0000000180015544     c1_flightControlSystem.obj
 0002:00000548       ?c1_condTxtEndIdx@?1??mdl_setup_runtime_resources_c1_flightControlSystem@@9@9 0000000180015548     c1_flightControlSystem.obj
 0002:00000554       ?c1_decisionTxtStartIdx@?1??mdl_setup_runtime_resources_c1_flightControlSystem@@9@9 0000000180015554     c1_flightControlSystem.obj
 0002:00000558       ?c1_condTxtStartIdx@?1??mdl_setup_runtime_resources_c1_flightControlSystem@@9@9 0000000180015558     c1_flightControlSystem.obj
 0002:00000660       GS_ExceptionPointers       0000000180015660     MSVCRT:gs_report.obj
 0002:00000d18       $unwind$load_flightControlSystem_optimization_info 0000000180015d18     flightControlSystem_sfun.obj
 0002:00000d20       $unwind$unload_flightControlSystem_optimization_info 0000000180015d20     flightControlSystem_sfun.obj
 0002:00000d28       $unwind$sf_flightControlSystem_method_dispatcher 0000000180015d28     flightControlSystem_sfun.obj
 0002:00000d30       $unwind$sf_flightControlSystem_process_check_sum_call 0000000180015d30     flightControlSystem_sfun.obj
 0002:00000d40       $unwind$sf_flightControlSystem_get_eml_resolved_functions_info 0000000180015d40     flightControlSystem_sfun.obj
 0002:00000d50       $unwind$sf_flightControlSystem_third_party_uses_info 0000000180015d50     flightControlSystem_sfun.obj
 0002:00000d60       $unwind$sf_flightControlSystem_jit_fallback_info 0000000180015d60     flightControlSystem_sfun.obj
 0002:00000d70       $unwind$sf_flightControlSystem_get_post_codegen_info 0000000180015d70     flightControlSystem_sfun.obj
 0002:00000d80       $unwind$sf_flightControlSystem_updateBuildInfo_args_info 0000000180015d80     flightControlSystem_sfun.obj
 0002:00000d90       $unwind$sf_c1_flightControlSystem_get_eml_resolved_functions_info 0000000180015d90     c1_flightControlSystem.obj
 0002:00000d98       $unwind$sf_c1_flightControlSystem_get_check_sum 0000000180015d98     c1_flightControlSystem.obj
 0002:00000da0       $unwind$c1_flightControlSystem_method_dispatcher 0000000180015da0     c1_flightControlSystem.obj
 0002:00000da8       $unwind$initialize_c1_flightControlSystem 0000000180015da8     c1_flightControlSystem.obj
 0002:00000db0       $unwind$mdl_start_c1_flightControlSystem 0000000180015db0     c1_flightControlSystem.obj
 0002:00000db8       $unwind$mdl_setup_runtime_resources_c1_flightControlSystem 0000000180015db8     c1_flightControlSystem.obj
 0002:00000dc0       $unwind$mdl_cleanup_runtime_resources_c1_flightControlSystem 0000000180015dc0     c1_flightControlSystem.obj
 0002:00000dc8       $unwind$enable_c1_flightControlSystem 0000000180015dc8     c1_flightControlSystem.obj
 0002:00000dd0       $unwind$disable_c1_flightControlSystem 0000000180015dd0     c1_flightControlSystem.obj
 0002:00000dd8       $unwind$sf_gateway_c1_flightControlSystem 0000000180015dd8     c1_flightControlSystem.obj
 0002:00000de8       $unwind$get_sim_state_c1_flightControlSystem 0000000180015de8     c1_flightControlSystem.obj
 0002:00000df0       $unwind$set_sim_state_c1_flightControlSystem 0000000180015df0     c1_flightControlSystem.obj
 0002:00000df8       $unwind$c1_imerode         0000000180015df8     c1_flightControlSystem.obj
 0002:00000e08       $unwind$c1_eml_find        0000000180015e08     c1_flightControlSystem.obj
 0002:00000e10       $unwind$c1_b_eml_find      0000000180015e10     c1_flightControlSystem.obj
 0002:00000e18       $unwind$c1_mean            0000000180015e18     c1_flightControlSystem.obj
 0002:00000e20       $unwind$c1_sumColumnB      0000000180015e20     c1_flightControlSystem.obj
 0002:00000e28       $unwind$c1_sumColumnB4     0000000180015e28     c1_flightControlSystem.obj
 0002:00000e30       $unwind$c1_b_sumColumnB    0000000180015e30     c1_flightControlSystem.obj
 0002:00000e38       $unwind$c1_c_eml_find      0000000180015e38     c1_flightControlSystem.obj
 0002:00000e40       $unwind$c1_emlrt_marshallIn 0000000180015e40     c1_flightControlSystem.obj
 0002:00000e48       $unwind$c1_b_emlrt_marshallIn 0000000180015e48     c1_flightControlSystem.obj
 0002:00000e50       $unwind$init_simulink_io_address 0000000180015e50     c1_flightControlSystem.obj
 0002:00000e58       $unwind$sf_c1_flightControlSystem_third_party_uses_info 0000000180015e58     c1_flightControlSystem.obj
 0002:00000e60       $unwind$sf_c1_flightControlSystem_jit_fallback_info 0000000180015e60     c1_flightControlSystem.obj
 0002:00000e70       $unwind$sf_c1_flightControlSystem_updateBuildInfo_args_info 0000000180015e70     c1_flightControlSystem.obj
 0002:00000e78       $unwind$sf_get_sim_state_info_c1_flightControlSystem 0000000180015e78     c1_flightControlSystem.obj
 0002:00000e80       $unwind$sf_opaque_initialize_c1_flightControlSystem 0000000180015e80     c1_flightControlSystem.obj
 0002:00000e88       $unwind$sf_opaque_enable_c1_flightControlSystem 0000000180015e88     c1_flightControlSystem.obj
 0002:00000e90       $unwind$sf_opaque_disable_c1_flightControlSystem 0000000180015e90     c1_flightControlSystem.obj
 0002:00000e98       $unwind$sf_opaque_gateway_c1_flightControlSystem 0000000180015e98     c1_flightControlSystem.obj
 0002:00000ea0       $unwind$sf_opaque_get_sim_state_c1_flightControlSystem 0000000180015ea0     c1_flightControlSystem.obj
 0002:00000ea8       $unwind$sf_opaque_set_sim_state_c1_flightControlSystem 0000000180015ea8     c1_flightControlSystem.obj
 0002:00000eb0       $unwind$sf_opaque_cleanup_runtime_resources_c1_flightControlSystem 0000000180015eb0     c1_flightControlSystem.obj
 0002:00000eb8       $unwind$sf_opaque_mdl_start_c1_flightControlSystem 0000000180015eb8     c1_flightControlSystem.obj
 0002:00000ec0       $unwind$sf_opaque_mdl_terminate_c1_flightControlSystem 0000000180015ec0     c1_flightControlSystem.obj
 0002:00000ec8       $unwind$mdlProcessParameters_c1_flightControlSystem 0000000180015ec8     c1_flightControlSystem.obj
 0002:00000ed0       $unwind$sf_c1_flightControlSystem_get_post_codegen_info 0000000180015ed0     c1_flightControlSystem.obj
 0002:00000ee0       $unwind$mdlSetWorkWidths_c1_flightControlSystem 0000000180015ee0     c1_flightControlSystem.obj
 0002:00000ee8       $unwind$mdlRTW_c1_flightControlSystem 0000000180015ee8     c1_flightControlSystem.obj
 0002:00000ef0       $unwind$mdlSetupRuntimeResources_c1_flightControlSystem 0000000180015ef0     c1_flightControlSystem.obj
 0002:00000ef8       $unwind$_vsnprintf_l       0000000180015ef8     flightControlSystem_sfun_registry.obj
 0002:00000f00       $unwind$_vsprintf_l        0000000180015f00     flightControlSystem_sfun_registry.obj
 0002:00000f08       $unwind$sprintf            0000000180015f08     flightControlSystem_sfun_registry.obj
 0002:00000f10       $unwind$mexFunction        0000000180015f10     flightControlSystem_sfun_registry.obj
 0002:00000f20       $unwind$_ssSetInputPortDirectFeedThroughFcn 0000000180015f20     flightControlSystem_sfun_registry.obj
 0002:00000f30       $unwind$_ssSetRWorkValueFcn 0000000180015f30     flightControlSystem_sfun_registry.obj
 0002:00000f38       $unwind$_ssGetRWorkValueFcn 0000000180015f38     flightControlSystem_sfun_registry.obj
 0002:00000f40       $unwind$_ssSetIWorkValueFcn 0000000180015f40     flightControlSystem_sfun_registry.obj
 0002:00000f48       $unwind$_ssGetIWorkValueFcn 0000000180015f48     flightControlSystem_sfun_registry.obj
 0002:00000f50       $unwind$_ssSetPWorkValueFcn 0000000180015f50     flightControlSystem_sfun_registry.obj
 0002:00000f58       $unwind$_ssGetPWorkValueFcn 0000000180015f58     flightControlSystem_sfun_registry.obj
 0002:00000f60       $unwind$_ssGetInputPortSignalFcn 0000000180015f60     flightControlSystem_sfun_registry.obj
 0002:00000f70       $unwind$_ssGetInputPortBufferDstPortFcn 0000000180015f70     flightControlSystem_sfun_registry.obj
 0002:00000f78       $unwind$_ssGetInputPortSignalPtrsFcn 0000000180015f78     flightControlSystem_sfun_registry.obj
 0002:00000f88       $unwind$ssGetParameterTuningCompliance 0000000180015f88     flightControlSystem_sfun_registry.obj
 0002:00000f90       $unwind$_ssReadInputStringFcn 0000000180015f90     flightControlSystem_sfun_registry.obj
 0002:00000f98       $unwind$ssGetDTypeIdFromMxArray 0000000180015f98     flightControlSystem_sfun_registry.obj
 0002:00000fa0       $unwind$ssWriteRTWMx2dMatParam 0000000180015fa0     flightControlSystem_sfun_registry.obj
 0002:00000fa8       $unwind$ssWriteRTWMxVectParam 0000000180015fa8     flightControlSystem_sfun_registry.obj
 0002:00000fb0       $unwind$ssWriteRTWParameters 0000000180015fb0     flightControlSystem_sfun_registry.obj
 0002:00000fb8       $unwind$ssWriteRTWParamSettings 0000000180015fb8     flightControlSystem_sfun_registry.obj
 0002:00000fc0       $unwind$ssWriteRTWStr      0000000180015fc0     flightControlSystem_sfun_registry.obj
 0002:00000fc8       $unwind$ssWriteRTWWorkVect 0000000180015fc8     flightControlSystem_sfun_registry.obj
 0002:00000fdc       $unwind$ssWarning          0000000180015fdc     flightControlSystem_sfun_registry.obj
 0002:00000ff0       $unwind$ssGetRootSS        0000000180015ff0     flightControlSystem_sfun_registry.obj
 0002:00000ff8       $unwind$ssGetParentSS      0000000180015ff8     flightControlSystem_sfun_registry.obj
 0002:00001000       $unwind$ssWriteRTWNameValuePair 0000000180016000     flightControlSystem_sfun_registry.obj
 0002:00001008       $unwind$_ssSetInputPortMatrixDimensions 0000000180016008     flightControlSystem_sfun_registry.obj
 0002:00001014       $unwind$_ssSetOutputPortMatrixDimensions 0000000180016014     flightControlSystem_sfun_registry.obj
 0002:00001020       $unwind$_ssSetInputPortVectorDimension 0000000180016020     flightControlSystem_sfun_registry.obj
 0002:0000102c       $unwind$_ssSetOutputPortVectorDimension 000000018001602c     flightControlSystem_sfun_registry.obj
 0002:00001038       $unwind$ssIsRunTimeParamTunable 0000000180016038     flightControlSystem_sfun_registry.obj
 0002:00001040       $unwind$ssGetSFuncBlockHandle 0000000180016040     flightControlSystem_sfun_registry.obj
 0002:00001048       $unwind$_ssGetCallSystemNumFcnCallDestinations 0000000180016048     flightControlSystem_sfun_registry.obj
 0002:00001050       $unwind$_ssGetCurrentInputPortWidth 0000000180016050     flightControlSystem_sfun_registry.obj
 0002:00001058       $unwind$_ssGetCurrentOutputPortWidth 0000000180016058     flightControlSystem_sfun_registry.obj
 0002:00001060       $unwind$ssGetIsZeroCrossControlDisabled 0000000180016060     flightControlSystem_sfun_registry.obj
 0002:00001068       $unwind$ssSetIsInputPortUsedForContZcSignal 0000000180016068     flightControlSystem_sfun_registry.obj
 0002:00001070       $unwind$ssSetZcSignalIsZcElementDisc 0000000180016070     flightControlSystem_sfun_registry.obj
 0002:00001080       $unwind$ssSetZcSignalName  0000000180016080     flightControlSystem_sfun_registry.obj
 0002:00001088       $unwind$ssSetZcSignalWidth 0000000180016088     flightControlSystem_sfun_registry.obj
 0002:00001090       $unwind$ssSetZcSignalZcEventType 0000000180016090     flightControlSystem_sfun_registry.obj
 0002:00001098       $unwind$ssSetZcSignalType  0000000180016098     flightControlSystem_sfun_registry.obj
 0002:000010a0       $unwind$ssSetZcSignalZcTol 00000001800160a0     flightControlSystem_sfun_registry.obj
 0002:000010a8       $unwind$ssSetZcSignalNeedsEventNotification 00000001800160a8     flightControlSystem_sfun_registry.obj
 0002:000010b0       $unwind$ssCreateAndAddZcSignalInfo 00000001800160b0     flightControlSystem_sfun_registry.obj
 0002:000010b8       $unwind$ssCloneAndAddZcSignalInfo 00000001800160b8     flightControlSystem_sfun_registry.obj
 0002:000010c0       $unwind$ssGetNumZcSignals  00000001800160c0     flightControlSystem_sfun_registry.obj
 0002:000010c8       $unwind$ssGetZcSignalVector 00000001800160c8     flightControlSystem_sfun_registry.obj
 0002:000010d0       $unwind$ssGetZcSignalName  00000001800160d0     flightControlSystem_sfun_registry.obj
 0002:000010d8       $unwind$ssGetZcSignalWidth 00000001800160d8     flightControlSystem_sfun_registry.obj
 0002:000010e0       $unwind$ssGetZcSignalZcEventType 00000001800160e0     flightControlSystem_sfun_registry.obj
 0002:000010e8       $unwind$ssGetZcSignalZcEvents 00000001800160e8     flightControlSystem_sfun_registry.obj
 0002:000010f0       $unwind$ssGetZcSignalType  00000001800160f0     flightControlSystem_sfun_registry.obj
 0002:000010f8       $unwind$ssGetZcSignalZcTol 00000001800160f8     flightControlSystem_sfun_registry.obj
 0002:00001100       $unwind$ssGetZcSignalNeedsEventNotification 0000000180016100     flightControlSystem_sfun_registry.obj
 0002:00001108       $unwind$ssGetZcSignalIsZcElementDisc 0000000180016108     flightControlSystem_sfun_registry.obj
 0002:00001118       $unwind$ssGetIsInputPortElementContinuous 0000000180016118     flightControlSystem_sfun_registry.obj
 0002:00001128       $unwind$_ssGetAbsTol       0000000180016128     flightControlSystem_sfun_registry.obj
 0002:00001130       $unwind$_ssSetInputPortReusableFcn 0000000180016130     flightControlSystem_sfun_registry.obj
 0002:00001138       $unwind$_ssSetOutputPortReusableFcn 0000000180016138     flightControlSystem_sfun_registry.obj
 0002:00001140       $unwind$_ssSetSymbolicDimsSupport 0000000180016140     flightControlSystem_sfun_registry.obj
 0002:00001148       $unwind$_ssRegisterSymbolicDimsExpr 0000000180016148     flightControlSystem_sfun_registry.obj
 0002:00001150       $unwind$_ssRegisterSymbolicDimsMATLABExpr 0000000180016150     flightControlSystem_sfun_registry.obj
 0002:00001158       $unwind$_ssRegisterSymbolicDims 0000000180016158     flightControlSystem_sfun_registry.obj
 0002:00001160       $unwind$_ssRegisterSymbolicDimsString 0000000180016160     flightControlSystem_sfun_registry.obj
 0002:00001168       $unwind$_ssRegisterSymbolicDimsIntValue 0000000180016168     flightControlSystem_sfun_registry.obj
 0002:00001170       $unwind$_ssRegisterSymbolicEqualRelation 0000000180016170     flightControlSystem_sfun_registry.obj
 0002:00001178       $unwind$_ssRegisterSymbolicEqualValue 0000000180016178     flightControlSystem_sfun_registry.obj
 0002:00001180       $unwind$_ssAmendLeadingSymbolicDims 0000000180016180     flightControlSystem_sfun_registry.obj
 0002:00001188       $unwind$_ssAmendTrailingSymbolicDims 0000000180016188     flightControlSystem_sfun_registry.obj
 0002:00001190       $unwind$_ssRegisterSymbolicDimsPlus 0000000180016190     flightControlSystem_sfun_registry.obj
 0002:00001198       $unwind$_ssRegisterSymbolicDimsMinus 0000000180016198     flightControlSystem_sfun_registry.obj
 0002:000011a0       $unwind$_ssRegisterSymbolicDimsMultiply 00000001800161a0     flightControlSystem_sfun_registry.obj
 0002:000011a8       $unwind$_ssRegisterSymbolicDimsDivide 00000001800161a8     flightControlSystem_sfun_registry.obj
 0002:000011b0       $unwind$_ssGetNumSymbolicDims 00000001800161b0     flightControlSystem_sfun_registry.obj
 0002:000011b8       $unwind$_ssGetSymbolicDim  00000001800161b8     flightControlSystem_sfun_registry.obj
 0002:000011c0       $unwind$_ssSetInputPortSymbolicDimsId 00000001800161c0     flightControlSystem_sfun_registry.obj
 0002:000011c8       $unwind$_ssGetCompInputPortSymbolicDimsId 00000001800161c8     flightControlSystem_sfun_registry.obj
 0002:000011d0       $unwind$_ssSetCompInputPortSymbolicDimsId 00000001800161d0     flightControlSystem_sfun_registry.obj
 0002:000011d8       $unwind$_ssSetOutputPortSymbolicDimsId 00000001800161d8     flightControlSystem_sfun_registry.obj
 0002:000011e0       $unwind$_ssGetCompOutputPortSymbolicDimsId 00000001800161e0     flightControlSystem_sfun_registry.obj
 0002:000011e8       $unwind$_ssSetCompOutputPortSymbolicDimsId 00000001800161e8     flightControlSystem_sfun_registry.obj
 0002:000011f0       $unwind$_ssGetDWorkSymbolicDimsId 00000001800161f0     flightControlSystem_sfun_registry.obj
 0002:000011f8       $unwind$_ssSetDWorkSymbolicDimsId 00000001800161f8     flightControlSystem_sfun_registry.obj
 0002:00001200       $unwind$_ssGetCompDWorkSymbolicDimsId 0000000180016200     flightControlSystem_sfun_registry.obj
 0002:00001208       $unwind$_ssSetCompDWorkSymbolicDimsId 0000000180016208     flightControlSystem_sfun_registry.obj
 0002:00001210       $unwind$_ssCreateSLCGStringBuffer 0000000180016210     flightControlSystem_sfun_registry.obj
 0002:00001218       $unwind$_ssAddToSLCGStringBuffer 0000000180016218     flightControlSystem_sfun_registry.obj
 0002:00001220       $unwind$_ssGetPointerContainedData 0000000180016220     flightControlSystem_sfun_registry.obj
 0002:00001228       $unwind$_ssGetPointerContainedDataWidth 0000000180016228     flightControlSystem_sfun_registry.obj
 0002:00001230       $unwind$_ssRegisterDynamicArrayDataTypeFcn 0000000180016230     flightControlSystem_sfun_registry.obj
 0002:00001238       $unwind$_ssGetDynamicArrayContainedDataCurrentWidthFcn 0000000180016238     flightControlSystem_sfun_registry.obj
 0002:00001240       $unwind$_ssGetDynamicArrayContainedDataFcn 0000000180016240     flightControlSystem_sfun_registry.obj
 0002:00001248       $unwind$_ssGetInputPortDynamicArrayDataFcn 0000000180016248     flightControlSystem_sfun_registry.obj
 0002:00001250       $unwind$_ssGetOutputPortDynamicArrayDataFcn 0000000180016250     flightControlSystem_sfun_registry.obj
 0002:00001258       $unwind$_ssGetInputPortDynamicArrayContainedDataFcn 0000000180016258     flightControlSystem_sfun_registry.obj
 0002:00001260       $unwind$_ssGetOutputPortDynamicArrayContainedDataFcn 0000000180016260     flightControlSystem_sfun_registry.obj
 0002:00001268       $unwind$_ssGetDynamicArrayDWorkContainedDataFcn 0000000180016268     flightControlSystem_sfun_registry.obj
 0002:00001270       $unwind$sf_process_check_sum_call 0000000180016270     flightControlSystem_sfun_registry.obj
 0002:00001278       $unwind$sf_process_get_third_party_uses_info_call 0000000180016278     flightControlSystem_sfun_registry.obj
 0002:00001288       $unwind$sf_process_get_jit_fallback_info_call 0000000180016288     flightControlSystem_sfun_registry.obj
 0002:00001298       $unwind$sf_process_get_post_codegen_info_call 0000000180016298     flightControlSystem_sfun_registry.obj
 0002:000012a8       $unwind$sf_process_get_updateBuildInfo_args_info_call 00000001800162a8     flightControlSystem_sfun_registry.obj
 0002:000012b8       $unwind$sf_process_get_eml_resolved_functions_info_call 00000001800162b8     flightControlSystem_sfun_registry.obj
 0002:000012c8       $unwind$sf_mex_unlock_call 00000001800162c8     flightControlSystem_sfun_registry.obj
 0002:000012d8       $unwind$ProcessMexSfunctionCmdLineCall 00000001800162d8     flightControlSystem_sfun_registry.obj
 0002:000012e0       $unwind$sf_machine_global_initializer_called 00000001800162e0     flightControlSystem_sfun_registry.obj
 0002:000012e8       $unwind$sf_machine_global_method_dispatcher 00000001800162e8     flightControlSystem_sfun_registry.obj
 0002:000012f0       $unwind$sf_machine_global_terminator 00000001800162f0     flightControlSystem_sfun_registry.obj
 0002:000012f8       $unwind$sf_machine_global_initializer 00000001800162f8     flightControlSystem_sfun_registry.obj
 0002:00001300       $unwind$mdlGetSimState     0000000180016300     flightControlSystem_sfun_registry.obj
 0002:00001308       $unwind$mdlSetSimState     0000000180016308     flightControlSystem_sfun_registry.obj
 0002:00001310       $unwind$mdlSetWorkWidths   0000000180016310     flightControlSystem_sfun_registry.obj
 0002:00001318       $unwind$mdlProcessParameters 0000000180016318     flightControlSystem_sfun_registry.obj
 0002:00001320       $unwind$mdl_setup_runtime_resources_processing 0000000180016320     flightControlSystem_sfun_registry.obj
 0002:00001328       $unwind$mdlSetupRuntimeResources 0000000180016328     flightControlSystem_sfun_registry.obj
 0002:00001330       $unwind$mdl_cleanup_runtime_resources_processing 0000000180016330     flightControlSystem_sfun_registry.obj
 0002:00001338       $unwind$mdlCleanupRuntimeResources 0000000180016338     flightControlSystem_sfun_registry.obj
 0002:00001340       $unwind$mdl_start_processing 0000000180016340     flightControlSystem_sfun_registry.obj
 0002:00001348       $unwind$mdlStart           0000000180016348     flightControlSystem_sfun_registry.obj
 0002:00001350       $unwind$mdl_terminate_processing 0000000180016350     flightControlSystem_sfun_registry.obj
 0002:00001358       $unwind$mdlTerminate       0000000180016358     flightControlSystem_sfun_registry.obj
 0002:00001360       $unwind$mdlInitializeSizes 0000000180016360     flightControlSystem_sfun_registry.obj
 0002:00001368       $unwind$mdlInitializeSampleTimes 0000000180016368     flightControlSystem_sfun_registry.obj
 0002:00001370       $unwind$mdl_outputs_continuous_legacy 0000000180016370     flightControlSystem_sfun_registry.obj
 0002:00001378       $unwind$mdl_outputs_processing 0000000180016378     flightControlSystem_sfun_registry.obj
 0002:00001380       $unwind$mdl_zeroCrossings_processing 0000000180016380     flightControlSystem_sfun_registry.obj
 0002:00001388       $unwind$mdlZeroCrossings   0000000180016388     flightControlSystem_sfun_registry.obj
 0002:00001390       $unwind$mdl_derivatives_processing 0000000180016390     flightControlSystem_sfun_registry.obj
 0002:00001398       $unwind$mdlDerivatives     0000000180016398     flightControlSystem_sfun_registry.obj
 0002:000013a0       $unwind$mdl_initialize_conditions_processing 00000001800163a0     flightControlSystem_sfun_registry.obj
 0002:000013a8       $unwind$mdlInitializeConditions 00000001800163a8     flightControlSystem_sfun_registry.obj
 0002:000013b0       $unwind$mdl_ext_mode_exec_processing 00000001800163b0     flightControlSystem_sfun_registry.obj
 0002:000013b8       $unwind$mdlExtModeExec     00000001800163b8     flightControlSystem_sfun_registry.obj
 0002:000013c0       $unwind$mdlRTW             00000001800163c0     flightControlSystem_sfun_registry.obj
 0002:000013c8       $unwind$mdl_enable_processing 00000001800163c8     flightControlSystem_sfun_registry.obj
 0002:000013d0       $unwind$mdlEnable          00000001800163d0     flightControlSystem_sfun_registry.obj
 0002:000013d8       $unwind$mdl_disable_processing 00000001800163d8     flightControlSystem_sfun_registry.obj
 0002:000013e0       $unwind$mdlDisable         00000001800163e0     flightControlSystem_sfun_registry.obj
 0002:000013e8       $unwind$mdlOutputs         00000001800163e8     flightControlSystem_sfun_registry.obj
 0002:000013f0       $unwind$mdl_update_processing 00000001800163f0     flightControlSystem_sfun_registry.obj
 0002:000013f8       $unwind$mdlUpdate          00000001800163f8     flightControlSystem_sfun_registry.obj
 0002:00001400       $unwind$ProcessMexSfunctionEveryCall 0000000180016400     flightControlSystem_sfun_registry.obj
 0002:00001408       $unwind$_RegNumInputPortsCB 0000000180016408     flightControlSystem_sfun_registry.obj
 0002:00001410       $unwind$_RegNumOutputPortsCB 0000000180016410     flightControlSystem_sfun_registry.obj
 0002:00001418       $unwind$_CreateSimStruct   0000000180016418     flightControlSystem_sfun_registry.obj
 0002:00001420       $unwind$_ProcessMexSfunctionCmdLineCall 0000000180016420     flightControlSystem_sfun_registry.obj
 0002:00001430       $unwind$ReportIndexOutOfBoundsError 0000000180016430     flightControlSystem_sfun_registry.obj
 0002:00001440       $unwind$getBitfieldFromFloat 0000000180016440     half_type.obj
 0002:00001448       $unwind$getFloatFromBitfield 0000000180016448     half_type.obj
 0002:00001450       $unwind$getHalfFromBitfield 0000000180016450     half_type.obj
 0002:00001458       $unwind$halfToFloat        0000000180016458     half_type.obj
 0002:00001460       $unwind$halfToDouble       0000000180016460     half_type.obj
 0002:00001468       $unwind$floatToHalf        0000000180016468     half_type.obj
 0002:00001470       $unwind$doubleToHalf       0000000180016470     half_type.obj
 0002:00001478       $unwind$__report_securityfailure 0000000180016478     MSVCRT:gs_report.obj
 0002:00001480       $unwind$__report_securityfailureEx 0000000180016480     MSVCRT:gs_report.obj
 0002:00001488       $unwind$__report_rangecheckfailure 0000000180016488     MSVCRT:gs_report.obj
 0002:00001490       $unwind$__report_gsfailure 0000000180016490     MSVCRT:gs_report.obj
 0002:00001498       $unwind$capture_current_context 0000000180016498     MSVCRT:gs_report.obj
 0002:000014a4       $unwind$capture_previous_context 00000001800164a4     MSVCRT:gs_report.obj
 0002:000014b0       $unwind$__raise_securityfailure 00000001800164b0     MSVCRT:gs_report.obj
 0002:000014b8       $unwind$__GSHandlerCheckCommon 00000001800164b8     MSVCRT:gshandler.obj
 0002:000014c0       $unwind$__GSHandlerCheck   00000001800164c0     MSVCRT:gshandler.obj
 0002:000014c8       $xdatasym                  00000001800164c8     MSVCRT:amdsecgs.obj
 0002:000014d0       $xdatasym                  00000001800164d0     MSVCRT:chkstk.obj
 0002:000014d8       $unwind$?dllmain_crt_process_attach@@YAHQEAUHINSTANCE__@@QEAX@Z 00000001800164d8     MSVCRT:dll_dllmain.obj
 0002:00001514       $unwind$?fin$0@?0??dllmain_crt_process_attach@@YAHQEAUHINSTANCE__@@QEAX@Z@4HA 0000000180016514     MSVCRT:dll_dllmain.obj
 0002:0000151c       $unwind$?dllmain_crt_process_detach@@YAH_N@Z 000000018001651c     MSVCRT:dll_dllmain.obj
 0002:00001570       $unwind$?fin$0@?0??dllmain_crt_process_detach@@YAH_N@Z@4HA 0000000180016570     MSVCRT:dll_dllmain.obj
 0002:00001578       $unwind$?fin$1@?0??dllmain_crt_process_detach@@YAH_N@Z@4HA 0000000180016578     MSVCRT:dll_dllmain.obj
 0002:00001580       $unwind$?dllmain_crt_dispatch@@YAHQEAUHINSTANCE__@@KQEAX@Z 0000000180016580     MSVCRT:dll_dllmain.obj
 0002:00001588       $unwind$?dllmain_dispatch@@YAHQEAUHINSTANCE__@@KQEAX@Z 0000000180016588     MSVCRT:dll_dllmain.obj
 0002:000015b0       $unwind$?filt$0@?0??dllmain_dispatch@@YAHQEAUHINSTANCE__@@KQEAX@Z@4HA 00000001800165b0     MSVCRT:dll_dllmain.obj
 0002:000015b8       $unwind$_DllMainCRTStartup 00000001800165b8     MSVCRT:dll_dllmain.obj
 0002:000015c8       $unwind$__security_init_cookie 00000001800165c8     MSVCRT:gs_support.obj
 0002:000015d4       $unwind$__get_entropy      00000001800165d4     MSVCRT:gs_support.obj
 0002:000015dc       $unwind$DllMain            00000001800165dc     MSVCRT:dll_dllmain_stub.obj
 0002:000015e4       $unwind$__scrt_initialize_default_local_stdio_options 00000001800165e4     MSVCRT:default_local_stdio_options.obj
 0002:000015ec       $unwind$atexit             00000001800165ec     MSVCRT:utility.obj
 0002:000015f4       $unwind$_onexit            00000001800165f4     MSVCRT:utility.obj
 0002:000015fc       $unwind$__scrt_is_nonwritable_in_current_image 00000001800165fc     MSVCRT:utility.obj
 0002:0000161c       $unwind$__scrt_is_nonwritable_in_current_image$filt$0 000000018001661c     MSVCRT:utility.obj
 0002:00001624       $unwind$__scrt_acquire_startup_lock 0000000180016624     MSVCRT:utility.obj
 0002:0000162c       $unwind$__scrt_release_startup_lock 000000018001662c     MSVCRT:utility.obj
 0002:00001634       $unwind$__scrt_initialize_crt 0000000180016634     MSVCRT:utility.obj
 0002:0000163c       $unwind$__scrt_uninitialize_crt 000000018001663c     MSVCRT:utility.obj
 0002:00001644       $unwind$__scrt_initialize_onexit_tables 0000000180016644     MSVCRT:utility.obj
 0002:0000164c       $unwind$__scrt_dllmain_exception_filter 000000018001664c     MSVCRT:utility.obj
 0002:00001660       $unwind$__scrt_dllmain_before_initialize_c 0000000180016660     MSVCRT:utility.obj
 0002:00001668       $unwind$__scrt_dllmain_after_initialize_c 0000000180016668     MSVCRT:utility.obj
 0002:00001670       $unwind$__scrt_dllmain_uninitialize_c 0000000180016670     MSVCRT:utility.obj
 0002:00001678       $unwind$__scrt_dllmain_uninitialize_critical 0000000180016678     MSVCRT:utility.obj
 0002:00001680       $unwind$__scrt_dllmain_crt_thread_attach 0000000180016680     MSVCRT:utility.obj
 0002:00001688       $unwind$__scrt_dllmain_crt_thread_detach 0000000180016688     MSVCRT:utility.obj
 0002:00001690       $unwind$?configure_argv@__scrt_narrow_argv_policy@@SAHXZ 0000000180016690     MSVCRT:utility.obj
 0002:00001698       $unwind$__scrt_get_show_window_mode 0000000180016698     MSVCRT:utility_desktop.obj
 0002:000016a0       $unwind$__scrt_is_managed_app 00000001800166a0     MSVCRT:utility_desktop.obj
 0002:000016a8       $unwind$__scrt_fastfail    00000001800166a8     MSVCRT:utility_desktop.obj
 0002:000016b8       $unwind$__scrt_unhandled_exception_filter 00000001800166b8     MSVCRT:utility_desktop.obj
 0002:000016c4       $unwind$_RTC_Initialize    00000001800166c4     MSVCRT:initsect.obj
 0002:000016d0       $unwind$_RTC_Terminate     00000001800166d0     MSVCRT:initsect.obj
 0002:000016dc       $unwind$__castguard_check_failure_os_handled_wrapper 00000001800166dc     MSVCRT:guard_support.obj
 0002:000016e4       $unwind$__castguard_check_failure_user_handled_wrapper 00000001800166e4     MSVCRT:guard_support.obj
 0002:000016ec       $unwind$__castguard_check_failure_os_handled 00000001800166ec     MSVCRT:guard_support.obj
 0002:000016f4       $unwind$__castguard_check_failure_user_handled 00000001800166f4     MSVCRT:guard_support.obj
 0002:000016fc       $unwind$__castguard_slow_path_check_os_handled 00000001800166fc     MSVCRT:guard_support.obj
 0002:00001704       $unwind$__castguard_slow_path_check_user_handled 0000000180016704     MSVCRT:guard_support.obj
 0002:0000170c       $unwind$__isa_available_init 000000018001670c     MSVCRT:cpu_disp.obj
 0002:00001720       $xdatasym                  0000000180016720     MSVCRT:guard_dispatch.obj
 0002:00001728       $xdatasym                  0000000180016728     MSVCRT:guard_xfg_dispatch.obj
 0002:00001730       .edata                     0000000180016730     flightControlSystem_sfun.exp
 0002:00001758       rgpv                       0000000180016758     flightControlSystem_sfun.exp
 0002:00001760       rgszName                   0000000180016760     flightControlSystem_sfun.exp
 0002:00001768       rgwOrd                     0000000180016768     flightControlSystem_sfun.exp
 0002:0000176c       szName                     000000018001676c     flightControlSystem_sfun.exp
 0002:0000178c       $N00001                    000000018001678c     flightControlSystem_sfun.exp
 0002:00001798       $N00002                    0000000180016798     flightControlSystem_sfun.exp
 0002:00001d52       .idata$6                   0000000180016d52     libmwmorphop_binary_tbb:libmwmorphop_binary_tbb.dll
 0002:000020bc       .idata$6                   00000001800170bc     sf_runtime:sf_runtime.dll
 0002:00002246       .idata$6                   0000000180017246     libmx:libmx.dll
 0002:000022da       .idata$6                   00000001800172da     libmex:libmex.dll
 0002:000022fc       .idata$6                   00000001800172fc     libut:libut.dll
 0002:00002330       .idata$6                   0000000180017330     libmwmathutil:libmwmathutil.dll
 0002:0000235c       .idata$6                   000000018001735c     libemlrt:libemlrt.dll
 0002:0000251a       .idata$6                   000000018001751a     libcovrt:libcovrt.dll
 0002:000026b4       .idata$6                   00000001800176b4     kernel32:KERNEL32.dll
 0002:00002742       .idata$6                   0000000180017742     vcruntime:VCRUNTIME140.dll
 0002:00002890       .idata$6                   0000000180017890     ucrt:api-ms-win-crt-string-l1-1-0.dll
 0002:000028b2       .idata$6                   00000001800178b2     ucrt:api-ms-win-crt-stdio-l1-1-0.dll
 0002:000028d2       .idata$6                   00000001800178d2     ucrt:api-ms-win-crt-heap-l1-1-0.dll
 0002:000028f2       .idata$6                   00000001800178f2     ucrt:api-ms-win-crt-runtime-l1-1-0.dll
 0003:00000000       $SG21325                   0000000180018000     flightControlSystem_sfun.obj
 0003:00000018       $SG21330                   0000000180018018     flightControlSystem_sfun.obj
 0003:00000020       $SG21333                   0000000180018020     flightControlSystem_sfun.obj
 0003:00000028       $SG21338                   0000000180018028     flightControlSystem_sfun.obj
 0003:00000030       $SG21364                   0000000180018030     flightControlSystem_sfun.obj
 0003:00000050       $SG21367                   0000000180018050     flightControlSystem_sfun.obj
 0003:00000068       $SG21392                   0000000180018068     flightControlSystem_sfun.obj
 0003:00000088       $SG21395                   0000000180018088     flightControlSystem_sfun.obj
 0003:000000a0       $SG21420                   00000001800180a0     flightControlSystem_sfun.obj
 0003:000000b8       $SG21423                   00000001800180b8     flightControlSystem_sfun.obj
 0003:000000d0       $SG21449                   00000001800180d0     flightControlSystem_sfun.obj
 0003:000000e8       $SG21452                   00000001800180e8     flightControlSystem_sfun.obj
 0003:00000100       $SG21477                   0000000180018100     flightControlSystem_sfun.obj
 0003:00000120       $SG21480                   0000000180018120     flightControlSystem_sfun.obj
 0003:00000138       $SG21499                   0000000180018138     flightControlSystem_sfun.obj
 0003:00000150       $SG21500                   0000000180018150     flightControlSystem_sfun.obj
 0003:00000170       $SG21265                   0000000180018170     c1_flightControlSystem.obj
 0003:00000178       $SG21266                   0000000180018178     c1_flightControlSystem.obj
 0003:000001ac       $SG21376                   00000001800181ac     c1_flightControlSystem.obj
 0003:000001b0       $SG21268                   00000001800181b0     c1_flightControlSystem.obj
 0003:000001c0       $SG21269                   00000001800181c0     c1_flightControlSystem.obj
 0003:00000208       $SG21271                   0000000180018208     c1_flightControlSystem.obj
 0003:00000220       $SG21272                   0000000180018220     c1_flightControlSystem.obj
 0003:00000268       $SG21274                   0000000180018268     c1_flightControlSystem.obj
 0003:00000280       $SG21275                   0000000180018280     c1_flightControlSystem.obj
 0003:000002c8       $SG21277                   00000001800182c8     c1_flightControlSystem.obj
 0003:000002f0       $SG21278                   00000001800182f0     c1_flightControlSystem.obj
 0003:00000340       $SG21280                   0000000180018340     c1_flightControlSystem.obj
 0003:00000348       $SG21281                   0000000180018348     c1_flightControlSystem.obj
 0003:00000380       $SG21283                   0000000180018380     c1_flightControlSystem.obj
 0003:00000388       $SG21284                   0000000180018388     c1_flightControlSystem.obj
 0003:000003c0       $SG21286                   00000001800183c0     c1_flightControlSystem.obj
 0003:000003e8       $SG21287                   00000001800183e8     c1_flightControlSystem.obj
 0003:00000408       $SG21289                   0000000180018408     c1_flightControlSystem.obj
 0003:00000430       $SG21290                   0000000180018430     c1_flightControlSystem.obj
 0003:00000450       $SG21292                   0000000180018450     c1_flightControlSystem.obj
 0003:00000478       $SG21293                   0000000180018478     c1_flightControlSystem.obj
 0003:00000498       $SG21295                   0000000180018498     c1_flightControlSystem.obj
 0003:000004c0       $SG21296                   00000001800184c0     c1_flightControlSystem.obj
 0003:000004e0       $SG21298                   00000001800184e0     c1_flightControlSystem.obj
 0003:00000508       $SG21299                   0000000180018508     c1_flightControlSystem.obj
 0003:00000528       $SG21301                   0000000180018528     c1_flightControlSystem.obj
 0003:00000550       $SG21302                   0000000180018550     c1_flightControlSystem.obj
 0003:00000570       $SG21304                   0000000180018570     c1_flightControlSystem.obj
 0003:00000598       $SG21305                   0000000180018598     c1_flightControlSystem.obj
 0003:000005b8       $SG21307                   00000001800185b8     c1_flightControlSystem.obj
 0003:000005e0       $SG21308                   00000001800185e0     c1_flightControlSystem.obj
 0003:00000600       $SG21310                   0000000180018600     c1_flightControlSystem.obj
 0003:00000628       $SG21311                   0000000180018628     c1_flightControlSystem.obj
 0003:00000648       $SG21313                   0000000180018648     c1_flightControlSystem.obj
 0003:00000670       $SG21314                   0000000180018670     c1_flightControlSystem.obj
 0003:00000690       $SG21316                   0000000180018690     c1_flightControlSystem.obj
 0003:000006b8       $SG21317                   00000001800186b8     c1_flightControlSystem.obj
 0003:000006d8       $SG21319                   00000001800186d8     c1_flightControlSystem.obj
 0003:00000700       $SG21320                   0000000180018700     c1_flightControlSystem.obj
 0003:00000720       $SG21322                   0000000180018720     c1_flightControlSystem.obj
 0003:00000748       $SG21323                   0000000180018748     c1_flightControlSystem.obj
 0003:00000768       $SG21325                   0000000180018768     c1_flightControlSystem.obj
 0003:00000790       $SG21326                   0000000180018790     c1_flightControlSystem.obj
 0003:000007b0       $SG21328                   00000001800187b0     c1_flightControlSystem.obj
 0003:000007d8       $SG21329                   00000001800187d8     c1_flightControlSystem.obj
 0003:000007f8       $SG21331                   00000001800187f8     c1_flightControlSystem.obj
 0003:00000820       $SG21332                   0000000180018820     c1_flightControlSystem.obj
 0003:00000840       $SG21334                   0000000180018840     c1_flightControlSystem.obj
 0003:00000868       $SG21335                   0000000180018868     c1_flightControlSystem.obj
 0003:00000888       $SG21337                   0000000180018888     c1_flightControlSystem.obj
 0003:00000890       $SG21338                   0000000180018890     c1_flightControlSystem.obj
 0003:000008c8       $SG21340                   00000001800188c8     c1_flightControlSystem.obj
 0003:000008d0       $SG21341                   00000001800188d0     c1_flightControlSystem.obj
 0003:00000918       $SG21343                   0000000180018918     c1_flightControlSystem.obj
 0003:00000920       $SG21344                   0000000180018920     c1_flightControlSystem.obj
 0003:00000970       $SG21346                   0000000180018970     c1_flightControlSystem.obj
 0003:00000990       $SG21347                   0000000180018990     c1_flightControlSystem.obj
 0003:000009f0       $SG21349                   00000001800189f0     c1_flightControlSystem.obj
 0003:00000a10       $SG21350                   0000000180018a10     c1_flightControlSystem.obj
 0003:00000a70       $SG21352                   0000000180018a70     c1_flightControlSystem.obj
 0003:00000a78       $SG21353                   0000000180018a78     c1_flightControlSystem.obj
 0003:00000ab0       $SG21355                   0000000180018ab0     c1_flightControlSystem.obj
 0003:00000ab8       $SG21356                   0000000180018ab8     c1_flightControlSystem.obj
 0003:00000aec       $SG21358                   0000000180018aec     c1_flightControlSystem.obj
 0003:00000af8       $SG21359                   0000000180018af8     c1_flightControlSystem.obj
 0003:00000b30       $SG21361                   0000000180018b30     c1_flightControlSystem.obj
 0003:00000b38       $SG21362                   0000000180018b38     c1_flightControlSystem.obj
 0003:00000b70       $SG21364                   0000000180018b70     c1_flightControlSystem.obj
 0003:00000b78       $SG21365                   0000000180018b78     c1_flightControlSystem.obj
 0003:00000bb0       $SG21367                   0000000180018bb0     c1_flightControlSystem.obj
 0003:00000bb8       $SG21368                   0000000180018bb8     c1_flightControlSystem.obj
 0003:00000bf0       $SG21370                   0000000180018bf0     c1_flightControlSystem.obj
 0003:00000bf8       $SG21371                   0000000180018bf8     c1_flightControlSystem.obj
 0003:00000c30       $SG21373                   0000000180018c30     c1_flightControlSystem.obj
 0003:00000c40       $SG21374                   0000000180018c40     c1_flightControlSystem.obj
 0003:00000c88       $SG21377                   0000000180018c88     c1_flightControlSystem.obj
 0003:00000cc0       $SG21379                   0000000180018cc0     c1_flightControlSystem.obj
 0003:00000cd0       $SG21380                   0000000180018cd0     c1_flightControlSystem.obj
 0003:00000d10       $SG21382                   0000000180018d10     c1_flightControlSystem.obj
 0003:00000d20       $SG21383                   0000000180018d20     c1_flightControlSystem.obj
 0003:00000d60       $SG21385                   0000000180018d60     c1_flightControlSystem.obj
 0003:00000d80       $SG21386                   0000000180018d80     c1_flightControlSystem.obj
 0003:00000dd0       $SG21388                   0000000180018dd0     c1_flightControlSystem.obj
 0003:00000dd8       $SG21389                   0000000180018dd8     c1_flightControlSystem.obj
 0003:00000e10       $SG21391                   0000000180018e10     c1_flightControlSystem.obj
 0003:00000e18       $SG21392                   0000000180018e18     c1_flightControlSystem.obj
 0003:00000e50       $SG21394                   0000000180018e50     c1_flightControlSystem.obj
 0003:00000e78       $SG21395                   0000000180018e78     c1_flightControlSystem.obj
 0003:00000e98       $SG21397                   0000000180018e98     c1_flightControlSystem.obj
 0003:00000ec0       $SG21398                   0000000180018ec0     c1_flightControlSystem.obj
 0003:00000edc       $SG21400                   0000000180018edc     c1_flightControlSystem.obj
 0003:00000ee8       $SG21401                   0000000180018ee8     c1_flightControlSystem.obj
 0003:00000f20       $SG21403                   0000000180018f20     c1_flightControlSystem.obj
 0003:00000f28       $SG21404                   0000000180018f28     c1_flightControlSystem.obj
 0003:00000f60       $SG21406                   0000000180018f60     c1_flightControlSystem.obj
 0003:00000f68       $SG21407                   0000000180018f68     c1_flightControlSystem.obj
 0003:00000fa0       $SG21409                   0000000180018fa0     c1_flightControlSystem.obj
 0003:00000fa8       $SG21410                   0000000180018fa8     c1_flightControlSystem.obj
 0003:00000fe0       c1_c_emlrtMCI              0000000180018fe0     c1_flightControlSystem.obj
 0003:00000ff8       c1_d_emlrtMCI              0000000180018ff8     c1_flightControlSystem.obj
 0003:00001010       c1_f_emlrtMCI              0000000180019010     c1_flightControlSystem.obj
 0003:00001028       c1_g_emlrtMCI              0000000180019028     c1_flightControlSystem.obj
 0003:00001040       c1_emlrtRSI                0000000180019040     c1_flightControlSystem.obj
 0003:00001058       c1_b_emlrtRSI              0000000180019058     c1_flightControlSystem.obj
 0003:00001070       c1_c_emlrtRSI              0000000180019070     c1_flightControlSystem.obj
 0003:00001088       c1_d_emlrtRSI              0000000180019088     c1_flightControlSystem.obj
 0003:000010a0       c1_e_emlrtRSI              00000001800190a0     c1_flightControlSystem.obj
 0003:000010b8       c1_f_emlrtRSI              00000001800190b8     c1_flightControlSystem.obj
 0003:000010d0       c1_g_emlrtRSI              00000001800190d0     c1_flightControlSystem.obj
 0003:000010e8       c1_h_emlrtRSI              00000001800190e8     c1_flightControlSystem.obj
 0003:00001100       c1_i_emlrtRSI              0000000180019100     c1_flightControlSystem.obj
 0003:00001118       c1_j_emlrtRSI              0000000180019118     c1_flightControlSystem.obj
 0003:00001130       c1_k_emlrtRSI              0000000180019130     c1_flightControlSystem.obj
 0003:00001148       c1_l_emlrtRSI              0000000180019148     c1_flightControlSystem.obj
 0003:00001160       c1_m_emlrtRSI              0000000180019160     c1_flightControlSystem.obj
 0003:00001178       c1_n_emlrtRSI              0000000180019178     c1_flightControlSystem.obj
 0003:00001190       c1_o_emlrtRSI              0000000180019190     c1_flightControlSystem.obj
 0003:000011a8       c1_p_emlrtRSI              00000001800191a8     c1_flightControlSystem.obj
 0003:000011c0       c1_q_emlrtRSI              00000001800191c0     c1_flightControlSystem.obj
 0003:000011d8       c1_w_emlrtRSI              00000001800191d8     c1_flightControlSystem.obj
 0003:000011f0       c1_x_emlrtRSI              00000001800191f0     c1_flightControlSystem.obj
 0003:00001208       c1_y_emlrtRSI              0000000180019208     c1_flightControlSystem.obj
 0003:00001220       c1_fb_emlrtRSI             0000000180019220     c1_flightControlSystem.obj
 0003:00001238       c1_gb_emlrtRSI             0000000180019238     c1_flightControlSystem.obj
 0003:00001250       c1_hb_emlrtRSI             0000000180019250     c1_flightControlSystem.obj
 0003:00001268       c1_cv                      0000000180019268     c1_flightControlSystem.obj
 0003:0000128c       $SG21894                   000000018001928c     c1_flightControlSystem.obj
 0003:00001290       $SG21504                   0000000180019290     c1_flightControlSystem.obj
 0003:000012a0       $SG21505                   00000001800192a0     c1_flightControlSystem.obj
 0003:000012c8       $SG21530                   00000001800192c8     c1_flightControlSystem.obj
 0003:000012e0       ?c1_b_cv@?1??sf_gateway_c1_flightControlSystem@@9@9 00000001800192e0     c1_flightControlSystem.obj
 0003:00001308       ?c1_cv1@?1??sf_gateway_c1_flightControlSystem@@9@9 0000000180019308     c1_flightControlSystem.obj
 0003:00001328       ?c1_cv2@?1??sf_gateway_c1_flightControlSystem@@9@9 0000000180019328     c1_flightControlSystem.obj
 0003:0000132c       $SG21895                   000000018001932c     c1_flightControlSystem.obj
 0003:00001330       $SG21896                   0000000180019330     c1_flightControlSystem.obj
 0003:00001338       $SG21897                   0000000180019338     c1_flightControlSystem.obj
 0003:00001344       $SG21898                   0000000180019344     c1_flightControlSystem.obj
 0003:0000134c       $SG21900                   000000018001934c     c1_flightControlSystem.obj
 0003:00001350       $SG21901                   0000000180019350     c1_flightControlSystem.obj
 0003:00001358       $SG21902                   0000000180019358     c1_flightControlSystem.obj
 0003:00001360       $SG21903                   0000000180019360     c1_flightControlSystem.obj
 0003:0000136c       $SG21904                   000000018001936c     c1_flightControlSystem.obj
 0003:00001374       $SG21923                   0000000180019374     c1_flightControlSystem.obj
 0003:00001378       $SG21924                   0000000180019378     c1_flightControlSystem.obj
 0003:0000137c       $SG21925                   000000018001937c     c1_flightControlSystem.obj
 0003:00001380       $SG21926                   0000000180019380     c1_flightControlSystem.obj
 0003:00001388       $SG21927                   0000000180019388     c1_flightControlSystem.obj
 0003:00001394       $SG21928                   0000000180019394     c1_flightControlSystem.obj
 0003:0000139c       $SG21958                   000000018001939c     c1_flightControlSystem.obj
 0003:000013a0       $SG21959                   00000001800193a0     c1_flightControlSystem.obj
 0003:000013a4       $SG21964                   00000001800193a4     c1_flightControlSystem.obj
 0003:000013a8       $SG21965                   00000001800193a8     c1_flightControlSystem.obj
 0003:000013ac       $SG22084                   00000001800193ac     c1_flightControlSystem.obj
 0003:000013b0       $SG22085                   00000001800193b0     c1_flightControlSystem.obj
 0003:000013b8       $SG22086                   00000001800193b8     c1_flightControlSystem.obj
 0003:000013c0       $SG22087                   00000001800193c0     c1_flightControlSystem.obj
 0003:000013cc       $SG22088                   00000001800193cc     c1_flightControlSystem.obj
 0003:000013d8       $SG22249                   00000001800193d8     c1_flightControlSystem.obj
 0003:000013e8       $SG22291                   00000001800193e8     c1_flightControlSystem.obj
 0003:00001428       $SG22303                   0000000180019428     c1_flightControlSystem.obj
 0003:00001438       $SG22305                   0000000180019438     c1_flightControlSystem.obj
 0003:00001448       $SG22307                   0000000180019448     c1_flightControlSystem.obj
 0003:00001460       $SG22309                   0000000180019460     c1_flightControlSystem.obj
 0003:00001478       $SG22311                   0000000180019478     c1_flightControlSystem.obj
 0003:0000148c       $SG22312                   000000018001948c     c1_flightControlSystem.obj
 0003:00001498       $SG22313                   0000000180019498     c1_flightControlSystem.obj
 0003:000014b0       $SG22316                   00000001800194b0     c1_flightControlSystem.obj
 0003:000014c8       $SG22329                   00000001800194c8     c1_flightControlSystem.obj
 0003:000014d8       $SG22331                   00000001800194d8     c1_flightControlSystem.obj
 0003:000014e0       $SG22332                   00000001800194e0     c1_flightControlSystem.obj
 0003:00001590       $SG22405                   0000000180019590     c1_flightControlSystem.obj
 0003:000015e0       $SG22407                   00000001800195e0     c1_flightControlSystem.obj
 0003:00001630       $SG22409                   0000000180019630     c1_flightControlSystem.obj
 0003:00001680       $SG22411                   0000000180019680     c1_flightControlSystem.obj
 0003:000016d0       $SG22413                   00000001800196d0     c1_flightControlSystem.obj
 0003:00001720       $SG22415                   0000000180019720     c1_flightControlSystem.obj
 0003:00001770       $SG22417                   0000000180019770     c1_flightControlSystem.obj
 0003:000017c0       $SG22419                   00000001800197c0     c1_flightControlSystem.obj
 0003:00001810       $SG22421                   0000000180019810     c1_flightControlSystem.obj
 0003:00001860       $SG22423                   0000000180019860     c1_flightControlSystem.obj
 0003:000018b0       $SG22425                   00000001800198b0     c1_flightControlSystem.obj
 0003:00001900       $SG22427                   0000000180019900     c1_flightControlSystem.obj
 0003:00001950       $SG22429                   0000000180019950     c1_flightControlSystem.obj
 0003:000019a0       $SG22431                   00000001800199a0     c1_flightControlSystem.obj
 0003:000019f0       $SG22433                   00000001800199f0     c1_flightControlSystem.obj
 0003:00001a40       $SG22435                   0000000180019a40     c1_flightControlSystem.obj
 0003:00001a90       $SG22437                   0000000180019a90     c1_flightControlSystem.obj
 0003:00001ae0       $SG22439                   0000000180019ae0     c1_flightControlSystem.obj
 0003:00001b30       $SG22441                   0000000180019b30     c1_flightControlSystem.obj
 0003:00001b80       $SG22443                   0000000180019b80     c1_flightControlSystem.obj
 0003:00001ba0       $SG22454                   0000000180019ba0     c1_flightControlSystem.obj
 0003:00001bb0       $SG22455                   0000000180019bb0     c1_flightControlSystem.obj
 0003:00001bc8       $SG22476                   0000000180019bc8     c1_flightControlSystem.obj
 0003:00001c00       $SG22488                   0000000180019c00     c1_flightControlSystem.obj
 0003:00001c78       $SG21100                   0000000180019c78     flightControlSystem_sfun_registry.obj
 0003:00001c98       $SG21102                   0000000180019c98     flightControlSystem_sfun_registry.obj
 0003:00001cb0       $SG21130                   0000000180019cb0     flightControlSystem_sfun_registry.obj
 0003:00001cc8       $SG21132                   0000000180019cc8     flightControlSystem_sfun_registry.obj
 0003:00001ce0       $SG21160                   0000000180019ce0     flightControlSystem_sfun_registry.obj
 0003:00001cf8       $SG21162                   0000000180019cf8     flightControlSystem_sfun_registry.obj
 0003:00001d10       $SG21190                   0000000180019d10     flightControlSystem_sfun_registry.obj
 0003:00001d30       $SG21192                   0000000180019d30     flightControlSystem_sfun_registry.obj
 0003:00001d48       $SG21220                   0000000180019d48     flightControlSystem_sfun_registry.obj
 0003:00001d68       $SG21222                   0000000180019d68     flightControlSystem_sfun_registry.obj
 0003:00001d80       $SG21238                   0000000180019d80     flightControlSystem_sfun_registry.obj
 0003:00001d90       $SG21252                   0000000180019d90     flightControlSystem_sfun_registry.obj
 0003:00001da8       $SG21272                   0000000180019da8     flightControlSystem_sfun_registry.obj
 0003:00001dbc       $SG21345                   0000000180019dbc     flightControlSystem_sfun_registry.obj
 0003:00001dc8       $SG21346                   0000000180019dc8     flightControlSystem_sfun_registry.obj
 0003:00001ddc       $SG21350                   0000000180019ddc     flightControlSystem_sfun_registry.obj
 0003:00001de8       $SG21351                   0000000180019de8     flightControlSystem_sfun_registry.obj
 0003:00001e08       $SG21465                   0000000180019e08     flightControlSystem_sfun_registry.obj
 0003:00001e30       _sfcnName                  0000000180019e30     flightControlSystem_sfun_registry.obj
 0003:00001e50       $SG21480                   0000000180019e50     flightControlSystem_sfun_registry.obj
 0003:00001ec8       $SG21785                   0000000180019ec8     flightControlSystem_sfun_registry.obj
 0003:00001ed0       $SG21786                   0000000180019ed0     flightControlSystem_sfun_registry.obj
 0003:00001ed8       $SG21798                   0000000180019ed8     flightControlSystem_sfun_registry.obj
 0003:00001ee8       $SG21934                   0000000180019ee8     flightControlSystem_sfun_registry.obj
 0003:00001f28       $SG21935                   0000000180019f28     flightControlSystem_sfun_registry.obj
 0003:00001f38       $SG21936                   0000000180019f38     flightControlSystem_sfun_registry.obj
 0003:00001f40       $SG21940                   0000000180019f40     flightControlSystem_sfun_registry.obj
 0003:00001f88       $SG21941                   0000000180019f88     flightControlSystem_sfun_registry.obj
 0003:00001f98       $SG21942                   0000000180019f98     flightControlSystem_sfun_registry.obj
 0003:00001fa0       $SG21943                   0000000180019fa0     flightControlSystem_sfun_registry.obj
 0003:00001ff8       $SG21944                   0000000180019ff8     flightControlSystem_sfun_registry.obj
 0003:00002008       $SG21945                   000000018001a008     flightControlSystem_sfun_registry.obj
 0003:00002010       $SG21965                   000000018001a010     flightControlSystem_sfun_registry.obj
 0003:00002050       $SG21966                   000000018001a050     flightControlSystem_sfun_registry.obj
 0003:00002060       $SG21967                   000000018001a060     flightControlSystem_sfun_registry.obj
 0003:00002070       $SG21971                   000000018001a070     flightControlSystem_sfun_registry.obj
 0003:000020b8       $SG21972                   000000018001a0b8     flightControlSystem_sfun_registry.obj
 0003:000020c8       $SG21973                   000000018001a0c8     flightControlSystem_sfun_registry.obj
 0003:000020d0       $SG21974                   000000018001a0d0     flightControlSystem_sfun_registry.obj
 0003:00002128       $SG21975                   000000018001a128     flightControlSystem_sfun_registry.obj
 0003:00002138       $SG21976                   000000018001a138     flightControlSystem_sfun_registry.obj
 0003:00002140       $SG21995                   000000018001a140     flightControlSystem_sfun_registry.obj
 0003:00002190       $SG21996                   000000018001a190     flightControlSystem_sfun_registry.obj
 0003:000021a0       $SG21997                   000000018001a1a0     flightControlSystem_sfun_registry.obj
 0003:000021b0       $SG22006                   000000018001a1b0     flightControlSystem_sfun_registry.obj
 0003:00002210       $SG22007                   000000018001a210     flightControlSystem_sfun_registry.obj
 0003:00002218       $SG22008                   000000018001a218     flightControlSystem_sfun_registry.obj
 0003:00002220       $SG22017                   000000018001a220     flightControlSystem_sfun_registry.obj
 0003:00002280       $SG22018                   000000018001a280     flightControlSystem_sfun_registry.obj
 0003:00002288       $SG22019                   000000018001a288     flightControlSystem_sfun_registry.obj
 0003:00002290       $SG22325                   000000018001a290     flightControlSystem_sfun_registry.obj
 0003:00002310       $SG22328                   000000018001a310     flightControlSystem_sfun_registry.obj
 0003:00002390       $SG22333                   000000018001a390     flightControlSystem_sfun_registry.obj
 0003:00002410       $SG22341                   000000018001a410     flightControlSystem_sfun_registry.obj
 0003:00002480       $SG22614                   000000018001a480     flightControlSystem_sfun_registry.obj
 0003:00002500       $SG22619                   000000018001a500     flightControlSystem_sfun_registry.obj
 0003:00002578       $SG22943                   000000018001a578     flightControlSystem_sfun_registry.obj
 0003:00002590       $SG22956                   000000018001a590     flightControlSystem_sfun_registry.obj
 0003:00002608       $SG22959                   000000018001a608     flightControlSystem_sfun_registry.obj
 0003:0000260c       $SG23011                   000000018001a60c     flightControlSystem_sfun_registry.obj
 0003:00002614       $SG23012                   000000018001a614     flightControlSystem_sfun_registry.obj
 0003:0000261c       $SG23013                   000000018001a61c     flightControlSystem_sfun_registry.obj
 0003:00002630       $SG23014                   000000018001a630     flightControlSystem_sfun_registry.obj
 0003:000026b0       $SG23016                   000000018001a6b0     flightControlSystem_sfun_registry.obj
 0003:0000272c       $SG23019                   000000018001a72c     flightControlSystem_sfun_registry.obj
 0003:00002734       $SG23022                   000000018001a734     flightControlSystem_sfun_registry.obj
 0003:0000273c       $SG23025                   000000018001a73c     flightControlSystem_sfun_registry.obj
 0003:00002750       $SG23026                   000000018001a750     flightControlSystem_sfun_registry.obj
 0003:000027d0       $SG23027                   000000018001a7d0     flightControlSystem_sfun_registry.obj
 0003:000027e0       $SG23029                   000000018001a7e0     flightControlSystem_sfun_registry.obj
 0003:000027ec       $SG23031                   000000018001a7ec     flightControlSystem_sfun_registry.obj
 0003:000027f4       $SG23033                   000000018001a7f4     flightControlSystem_sfun_registry.obj
 0003:00002800       $SG23035                   000000018001a800     flightControlSystem_sfun_registry.obj
 0003:0000280c       $SG23037                   000000018001a80c     flightControlSystem_sfun_registry.obj
 0003:00002810       $SG23040                   000000018001a810     flightControlSystem_sfun_registry.obj
 0003:000028f8       $SG23150                   000000018001a8f8     flightControlSystem_sfun_registry.obj
 0003:00002928       $SG23151                   000000018001a928     flightControlSystem_sfun_registry.obj
 0003:00002938       $SG23152                   000000018001a938     flightControlSystem_sfun_registry.obj
 0003:00002940       $SG23154                   000000018001a940     flightControlSystem_sfun_registry.obj
 0003:00002978       $SG23155                   000000018001a978     flightControlSystem_sfun_registry.obj
 0003:00002988       $SG23156                   000000018001a988     flightControlSystem_sfun_registry.obj
 0003:00002990       $SG23159                   000000018001a990     flightControlSystem_sfun_registry.obj
 0003:000029c8       $SG23160                   000000018001a9c8     flightControlSystem_sfun_registry.obj
 0003:000029d8       $SG23161                   000000018001a9d8     flightControlSystem_sfun_registry.obj
 0003:000029e0       $SG23163                   000000018001a9e0     flightControlSystem_sfun_registry.obj
 0003:00002a18       $SG23164                   000000018001aa18     flightControlSystem_sfun_registry.obj
 0003:00002a28       $SG23165                   000000018001aa28     flightControlSystem_sfun_registry.obj
 0003:00002a30       $SG23167                   000000018001aa30     flightControlSystem_sfun_registry.obj
 0003:00002a68       $SG23168                   000000018001aa68     flightControlSystem_sfun_registry.obj
 0003:00002a78       $SG23169                   000000018001aa78     flightControlSystem_sfun_registry.obj
 0003:00002a80       $SG23172                   000000018001aa80     flightControlSystem_sfun_registry.obj
 0003:00002a88       $SG23174                   000000018001aa88     flightControlSystem_sfun_registry.obj
 0003:00002aa0       $SG23175                   000000018001aaa0     flightControlSystem_sfun_registry.obj
 0003:00002ad8       $SG23176                   000000018001aad8     flightControlSystem_sfun_registry.obj
 0003:00002ae8       $SG23177                   000000018001aae8     flightControlSystem_sfun_registry.obj
 0003:00002af0       $SG23343                   000000018001aaf0     flightControlSystem_sfun_registry.obj
 0003:00002b10       $SG23344                   000000018001ab10     flightControlSystem_sfun_registry.obj
 0003:00002ba0       $SG23350                   000000018001aba0     flightControlSystem_sfun_registry.obj
 0003:00002bc0       $SG23351                   000000018001abc0     flightControlSystem_sfun_registry.obj
 0003:00002c50       $SG23357                   000000018001ac50     flightControlSystem_sfun_registry.obj
 0003:00002c70       $SG23358                   000000018001ac70     flightControlSystem_sfun_registry.obj
 0003:00002d00       $SG23364                   000000018001ad00     flightControlSystem_sfun_registry.obj
 0003:00002d20       $SG23365                   000000018001ad20     flightControlSystem_sfun_registry.obj
 0003:00002db0       $SG23371                   000000018001adb0     flightControlSystem_sfun_registry.obj
 0003:00002dd0       $SG23372                   000000018001add0     flightControlSystem_sfun_registry.obj
 0003:00002e60       $SG23376                   000000018001ae60     flightControlSystem_sfun_registry.obj
 0003:00002e80       $SG23377                   000000018001ae80     flightControlSystem_sfun_registry.obj
 0003:00002f10       $SG23381                   000000018001af10     flightControlSystem_sfun_registry.obj
 0003:00002f40       $SG23382                   000000018001af40     flightControlSystem_sfun_registry.obj
 0003:00002fd0       $SG23386                   000000018001afd0     flightControlSystem_sfun_registry.obj
 0003:00003000       $SG23387                   000000018001b000     flightControlSystem_sfun_registry.obj
 0003:00003090       $SG23391                   000000018001b090     flightControlSystem_sfun_registry.obj
 0003:000030b0       $SG23392                   000000018001b0b0     flightControlSystem_sfun_registry.obj
 0003:00003140       $SG23396                   000000018001b140     flightControlSystem_sfun_registry.obj
 0003:00003160       $SG23397                   000000018001b160     flightControlSystem_sfun_registry.obj
 0003:000031f0       $SG23401                   000000018001b1f0     flightControlSystem_sfun_registry.obj
 0003:00003210       $SG23402                   000000018001b210     flightControlSystem_sfun_registry.obj
 0003:000032a0       $SG23406                   000000018001b2a0     flightControlSystem_sfun_registry.obj
 0003:000032c0       $SG23407                   000000018001b2c0     flightControlSystem_sfun_registry.obj
 0003:00003350       $SG23411                   000000018001b350     flightControlSystem_sfun_registry.obj
 0003:00003370       $SG23412                   000000018001b370     flightControlSystem_sfun_registry.obj
 0003:00003400       $SG23416                   000000018001b400     flightControlSystem_sfun_registry.obj
 0003:00003420       $SG23417                   000000018001b420     flightControlSystem_sfun_registry.obj
 0003:000034b0       $SG23421                   000000018001b4b0     flightControlSystem_sfun_registry.obj
 0003:000034d0       $SG23422                   000000018001b4d0     flightControlSystem_sfun_registry.obj
 0003:00003560       $SG23426                   000000018001b560     flightControlSystem_sfun_registry.obj
 0003:00003580       $SG23427                   000000018001b580     flightControlSystem_sfun_registry.obj
 0003:00003610       $SG23431                   000000018001b610     flightControlSystem_sfun_registry.obj
 0003:00003630       $SG23432                   000000018001b630     flightControlSystem_sfun_registry.obj
 0003:000036c0       $SG23437                   000000018001b6c0     flightControlSystem_sfun_registry.obj
 0003:000036e0       $SG23438                   000000018001b6e0     flightControlSystem_sfun_registry.obj
 0003:00003770       $SG23443                   000000018001b770     flightControlSystem_sfun_registry.obj
 0003:00003780       $SG23444                   000000018001b780     flightControlSystem_sfun_registry.obj
 0003:00003810       $SG23448                   000000018001b810     flightControlSystem_sfun_registry.obj
 0003:00003830       $SG23449                   000000018001b830     flightControlSystem_sfun_registry.obj
 0003:000038c0       $SG23453                   000000018001b8c0     flightControlSystem_sfun_registry.obj
 0003:000038d0       $SG23454                   000000018001b8d0     flightControlSystem_sfun_registry.obj
 0003:00003960       $SG23458                   000000018001b960     flightControlSystem_sfun_registry.obj
 0003:00003980       $SG23459                   000000018001b980     flightControlSystem_sfun_registry.obj
 0003:00003a10       $SG23463                   000000018001ba10     flightControlSystem_sfun_registry.obj
 0003:00003a30       $SG23464                   000000018001ba30     flightControlSystem_sfun_registry.obj
 0003:00003ac0       $SG23468                   000000018001bac0     flightControlSystem_sfun_registry.obj
 0003:00003ad0       $SG23469                   000000018001bad0     flightControlSystem_sfun_registry.obj
 0003:00003b60       $SG23473                   000000018001bb60     flightControlSystem_sfun_registry.obj
 0003:00003b70       $SG23474                   000000018001bb70     flightControlSystem_sfun_registry.obj
 0003:00003c00       $SG23478                   000000018001bc00     flightControlSystem_sfun_registry.obj
 0003:00003c20       $SG23479                   000000018001bc20     flightControlSystem_sfun_registry.obj
 0003:00003cb0       $SG23483                   000000018001bcb0     flightControlSystem_sfun_registry.obj
 0003:00003cd0       $SG23484                   000000018001bcd0     flightControlSystem_sfun_registry.obj
 0003:00003d60       $SG23488                   000000018001bd60     flightControlSystem_sfun_registry.obj
 0003:00003d70       $SG23489                   000000018001bd70     flightControlSystem_sfun_registry.obj
 0003:00003e00       $SG23497                   000000018001be00     flightControlSystem_sfun_registry.obj
 0003:00003e10       $SG23498                   000000018001be10     flightControlSystem_sfun_registry.obj
 0003:00003ea0       $SG23504                   000000018001bea0     flightControlSystem_sfun_registry.obj
 0003:00003eb0       $SG23505                   000000018001beb0     flightControlSystem_sfun_registry.obj
 0003:00003f40       $SG23509                   000000018001bf40     flightControlSystem_sfun_registry.obj
 0003:00003f50       $SG23510                   000000018001bf50     flightControlSystem_sfun_registry.obj
 0003:00003fe0       $SG23515                   000000018001bfe0     flightControlSystem_sfun_registry.obj
 0003:00003ff0       $SG23516                   000000018001bff0     flightControlSystem_sfun_registry.obj
 0003:00004080       $SG23520                   000000018001c080     flightControlSystem_sfun_registry.obj
 0003:00004100       $SG23543                   000000018001c100     flightControlSystem_sfun_registry.obj
 0003:00004218       $SG23551                   000000018001c218     flightControlSystem_sfun_registry.obj
 0003:00004228       $SG23558                   000000018001c228     flightControlSystem_sfun_registry.obj
 0003:00004238       $SG23566                   000000018001c238     flightControlSystem_sfun_registry.obj
 0003:00004248       $SG23573                   000000018001c248     flightControlSystem_sfun_registry.obj
 0003:00004258       $SG23581                   000000018001c258     flightControlSystem_sfun_registry.obj
 0003:00004268       $SG23588                   000000018001c268     flightControlSystem_sfun_registry.obj
 0003:00004278       $SG23594                   000000018001c278     flightControlSystem_sfun_registry.obj
 0003:00004298       $SG23604                   000000018001c298     flightControlSystem_sfun_registry.obj
 0003:000042c8       $SG23605                   000000018001c2c8     flightControlSystem_sfun_registry.obj
 0003:000042d0       $SG23606                   000000018001c2d0     flightControlSystem_sfun_registry.obj
 0003:000042d8       $SG23616                   000000018001c2d8     flightControlSystem_sfun_registry.obj
 0003:00004310       $SG23617                   000000018001c310     flightControlSystem_sfun_registry.obj
 0003:00004318       $SG23618                   000000018001c318     flightControlSystem_sfun_registry.obj
 0003:000043d0       sRtwOptimizationInfoStruct 000000018001c3d0     flightControlSystem_sfun.obj
 0003:000043d8       sOptimizationInfoFlags     000000018001c3d8     flightControlSystem_sfun.obj
 0003:000043e0       _sfTime_                   000000018001c3e0     c1_flightControlSystem.obj
 0003:000043e8       $SG21529                   000000018001c3e8     c1_flightControlSystem.obj
 0003:000043e9       $SG22314                   000000018001c3e9     c1_flightControlSystem.obj
 0003:000043ea       $SG22315                   000000018001c3ea     c1_flightControlSystem.obj
 0003:000043eb       $SG22445                   000000018001c3eb     c1_flightControlSystem.obj
 0003:000043f0       ?newstr@?1??sf_c1_flightControlSystem_get_post_codegen_info@@9@9 000000018001c3f0     c1_flightControlSystem.obj
 0003:000049a4       sfGlobalMdlStartCallCounts 000000018001c9a4     flightControlSystem_sfun_registry.obj
 0003:000049a8       $SG23007                   000000018001c9a8     flightControlSystem_sfun_registry.obj
 0003:000049aa       ?warningGuard@?1??ssGetRootSS@@9@9 000000018001c9aa     flightControlSystem_sfun_registry.obj
 0003:000049ab       ?warningGuard@?1??ssGetParentSS@@9@9 000000018001c9ab     flightControlSystem_sfun_registry.obj
 0003:000049b0       GS_ExceptionRecord         000000018001c9b0     MSVCRT:gs_report.obj
 0003:00004a50       GS_ContextRecord           000000018001ca50     MSVCRT:gs_report.obj
 0003:00004f20       ?__proc_attached@@3HA      000000018001cf20     MSVCRT:dll_dllmain.obj
 0003:00004f60       ?is_initialized_as_dll@@3_NA 000000018001cf60     MSVCRT:utility.obj
 0003:00004f61       ?module_local_atexit_table_initialized@@3_NA 000000018001cf61     MSVCRT:utility.obj
 0003:00004f68       ?module_local_atexit_table@@3U_onexit_table_t@@A 000000018001cf68     MSVCRT:utility.obj
 0003:00004f80       ?module_local_at_quick_exit_table@@3U_onexit_table_t@@A 000000018001cf80     MSVCRT:utility.obj
